L251 LINKER/LOCATER V4.66.93.0                                                          07/31/2023  12:50:11  PAGE 1


L251 LINKER/LOCATER V4.66.93.0, INVOKED BY:
C:\KEIL_V5\C251\BIN\L251.EXE .\Out_File\board.obj, .\Out_File\common.obj, .\Out_File\zf_adc.obj, .\Out_File\zf_delay.obj
>> , .\Out_File\zf_eeprom.obj, .\Out_File\zf_exti.obj, .\Out_File\zf_gpio.obj, .\Out_File\zf_nvic.obj, .\Out_File\zf_pwm
>> .obj, .\Out_File\zf_spi.obj, .\Out_File\zf_tim.obj, .\Out_File\zf_uart.obj, .\Out_File\zf_fifo.obj, .\Out_File\SEEKFR
>> EE_18TFT.obj, .\Out_File\SEEKFREE_BLUETOOTH_CH9141.obj, ..\..\Libraries\seekfree_peripheral\SEEKFREE_CONFIG.LIB, .\Ou
>> t_File\SEEKFREE_DL1A.obj, .\Out_File\SEEKFREE_DL1B.obj, .\Out_File\SEEKFREE_FONT.obj, .\Out_File\SEEKFREE_ICM20602.ob
>> j, .\Out_File\SEEKFREE_IMU660RA.obj, .\Out_File\SEEKFREE_IMU963RA.obj, .\Out_File\SEEKFREE_IPS114_SPI.obj, .\Out_File
>> \SEEKFREE_MPU6050.obj, .\Out_File\SEEKFREE_OLED.obj, .\Out_File\SEEKFREE_PRINTF.obj, .\Out_File\SEEKFREE_VIRSCO.obj, 
>> .\Out_File\SEEKFREE_WIRELESS.obj, .\Out_File\SEEKFREE_WIRELESS_CH573.obj, .\Out_File\isr.obj, .\Out_File\main.obj, .\
>> Out_File\key.obj, .\Out_File\menu.obj, .\Out_File\eeprom.obj, .\Out_File\rtc.obj, .\Out_File\user_time.obj TO .\Out_F
>> ile\SEEKFREE PRINT (.\Out_File\SEEKFREE.map) CASE DISABLEWARNING (15, 16, 57) REMOVEUNUSED CLASSES (EDATA (0X0-0XFFF)
>> , HDATA (0X0-0XFFF))


CPU MODE:     251 SOURCE MODE
INTR FRAME:   2 BYTES SAVED ON INTERRUPT
MEMORY MODEL: XSMALL WITH FLOATING POINT ARITHMETIC


INPUT MODULES INCLUDED:
  .\Out_File\board.obj (board)
         COMMENT TYPE 0: C251 V5.60.0
  .\Out_File\common.obj (common)
         COMMENT TYPE 0: C251 V5.60.0
  .\Out_File\zf_adc.obj (zf_adc)
         COMMENT TYPE 0: C251 V5.60.0
  .\Out_File\zf_delay.obj (zf_delay)
         COMMENT TYPE 0: C251 V5.60.0
  .\Out_File\zf_eeprom.obj (zf_eeprom)
         COMMENT TYPE 0: C251 V5.60.0
  .\Out_File\zf_exti.obj (zf_exti)
         COMMENT TYPE 0: C251 V5.60.0
  .\Out_File\zf_gpio.obj (zf_gpio)
         COMMENT TYPE 0: C251 V5.60.0
  .\Out_File\zf_nvic.obj (zf_nvic)
         COMMENT TYPE 0: C251 V5.60.0
  .\Out_File\zf_pwm.obj (zf_pwm)
         COMMENT TYPE 0: C251 V5.60.0
  .\Out_File\zf_spi.obj (zf_spi)
         COMMENT TYPE 0: C251 V5.60.0
  .\Out_File\zf_tim.obj (zf_tim)
         COMMENT TYPE 0: C251 V5.60.0
  .\Out_File\zf_uart.obj (zf_uart)
         COMMENT TYPE 0: C251 V5.60.0
  .\Out_File\zf_fifo.obj (zf_fifo)
         COMMENT TYPE 0: C251 V5.60.0
  .\Out_File\SEEKFREE_18TFT.obj (SEEKFREE_18TFT)
         COMMENT TYPE 0: C251 V5.60.0
  .\Out_File\SEEKFREE_BLUETOOTH_CH9141.obj (SEEKFREE_BLUETOOTH_CH9141)
         COMMENT TYPE 0: C251 V5.60.0
  .\Out_File\SEEKFREE_DL1A.obj (SEEKFREE_DL1A)
         COMMENT TYPE 0: C251 V5.60.0
  .\Out_File\SEEKFREE_DL1B.obj (SEEKFREE_DL1B)
         COMMENT TYPE 0: C251 V5.60.0
  .\Out_File\SEEKFREE_FONT.obj (SEEKFREE_FONT)
         COMMENT TYPE 0: C251 V5.60.0
  .\Out_File\SEEKFREE_ICM20602.obj (SEEKFREE_ICM20602)
         COMMENT TYPE 0: C251 V5.60.0
  .\Out_File\SEEKFREE_IMU660RA.obj (SEEKFREE_IMU660RA)
         COMMENT TYPE 0: C251 V5.60.0
  .\Out_File\SEEKFREE_IMU963RA.obj (SEEKFREE_IMU963RA)
         COMMENT TYPE 0: C251 V5.60.0
  .\Out_File\SEEKFREE_IPS114_SPI.obj (SEEKFREE_IPS114_SPI)
         COMMENT TYPE 0: C251 V5.60.0
  .\Out_File\SEEKFREE_MPU6050.obj (SEEKFREE_MPU6050)
         COMMENT TYPE 0: C251 V5.60.0
L251 LINKER/LOCATER V4.66.93.0                                                        07/31/2023  12:50:11  PAGE 2


  .\Out_File\SEEKFREE_OLED.obj (SEEKFREE_OLED)
         COMMENT TYPE 0: C251 V5.60.0
  .\Out_File\SEEKFREE_PRINTF.obj (SEEKFREE_PRINTF)
         COMMENT TYPE 0: C251 V5.60.0
  .\Out_File\SEEKFREE_VIRSCO.obj (SEEKFREE_VIRSCO)
         COMMENT TYPE 0: C251 V5.60.0
  .\Out_File\SEEKFREE_WIRELESS.obj (SEEKFREE_WIRELESS)
         COMMENT TYPE 0: C251 V5.60.0
  .\Out_File\SEEKFREE_WIRELESS_CH573.obj (SEEKFREE_WIRELESS_CH573)
         COMMENT TYPE 0: C251 V5.60.0
  .\Out_File\isr.obj (isr)
         COMMENT TYPE 0: C251 V5.60.0
  .\Out_File\main.obj (main)
         COMMENT TYPE 0: C251 V5.60.0
  .\Out_File\key.obj (key)
         COMMENT TYPE 0: C251 V5.60.0
  .\Out_File\menu.obj (menu)
         COMMENT TYPE 0: C251 V5.60.0
  .\Out_File\eeprom.obj (eeprom)
         COMMENT TYPE 0: C251 V5.60.0
  .\Out_File\rtc.obj (rtc)
         COMMENT TYPE 0: C251 V5.60.0
  .\Out_File\user_time.obj (user_time)
         COMMENT TYPE 0: C251 V5.60.0
  ..\..\Libraries\seekfree_peripheral\SEEKFREE_CONFIG.LIB (SEEKFREE_CONFIG)
         COMMENT TYPE 0: C251 V5.60.0
  C:\KEIL_V5\C251\LIB\C2SFPXS.LIB (?C?FPADD)
         COMMENT TYPE 0: A251 V4.69.6.0
  C:\KEIL_V5\C251\LIB\C2SFPXS.LIB (?C?FPMUL)
         COMMENT TYPE 0: A251 V4.69.6.0
  C:\KEIL_V5\C251\LIB\C2SFPXS.LIB (?C?FPDIV)
         COMMENT TYPE 0: A251 V4.69.6.0
  C:\KEIL_V5\C251\LIB\C2SFPXS.LIB (?C?FPCMP)
         COMMENT TYPE 0: A251 V4.69.6.0
  C:\KEIL_V5\C251\LIB\C2SFPXS.LIB (?C?FCAST)
         COMMENT TYPE 0: A251 V4.69.6.0
  C:\KEIL_V5\C251\LIB\C2SFPXS.LIB (?C?CASTF)
         COMMENT TYPE 0: A251 V4.69.6.0
  C:\KEIL_V5\C251\LIB\C2SFPXS.LIB (PRINTF)
         COMMENT TYPE 0: A251 V4.69.6.0
  C:\KEIL_V5\C251\LIB\C2SFPXS.LIB (?C?FPGETOPN)
         COMMENT TYPE 0: A251 V4.69.6.0
  C:\KEIL_V5\C251\LIB\C2SFPXS.LIB (?C?PRNFMT)
         COMMENT TYPE 0: A251 V4.69.6.0
  C:\KEIL_V5\C251\LIB\C2SFPXS.LIB (?C?FPCONVERT)
         COMMENT TYPE 0: A251 V4.69.6.0
  C:\KEIL_V5\C251\LIB\C2SFPXS.LIB (?C?FTNPWR)
         COMMENT TYPE 0: A251 V4.69.6.0
  C:\KEIL_V5\C251\LIB\C2SXS.LIB (?C_START)
         COMMENT TYPE 0: A251 V4.69.6.0
  C:\KEIL_V5\C251\LIB\C2SXS.LIB (?C?INITEDATA)
         COMMENT TYPE 0: A251 V4.69.6.0
  C:\KEIL_V5\C251\LIB\C2SXS.LIB (?C?SIDIV)
         COMMENT TYPE 0: A251 V4.69.6.0
  C:\KEIL_V5\C251\LIB\C2SXS.LIB (?C?LMUL)
         COMMENT TYPE 0: A251 V4.69.6.0
  C:\KEIL_V5\C251\LIB\C2SXS.LIB (?C?LIMUL)
         COMMENT TYPE 0: A251 V4.69.6.0
  C:\KEIL_V5\C251\LIB\C2SXS.LIB (?C?ULDIV)
         COMMENT TYPE 0: A251 V4.69.6.0
  C:\KEIL_V5\C251\LIB\C2SXS.LIB (?C?SLDIV)
         COMMENT TYPE 0: A251 V4.69.6.0
  C:\KEIL_V5\C251\LIB\C2SXS.LIB (memcpy)
         COMMENT TYPE 0: C251 V5.58.7
  C:\KEIL_V5\C251\LIB\C2SXS.LIB (memset)
L251 LINKER/LOCATER V4.66.93.0                                                        07/31/2023  12:50:11  PAGE 3


         COMMENT TYPE 0: C251 V5.58.7
  C:\KEIL_V5\C251\LIB\C2SXS.LIB (?C?INITEDATA_END)
         COMMENT TYPE 0: A251 V4.69.6.0


ACTIVE MEMORY CLASSES OF MODULE:  .\Out_File\SEEKFREE (board)

BASE        START       END         USED      MEMORY CLASS
==========================================================
000000H     000000H     000FFFH     000DF8H   EDATA
000000H     000000H     000FFFH               HDATA
FF0000H     FF0000H     FFFFFFH     007B25H   CODE
000000H     FF0000H     FFFFFFH     0003D8H   HCONST
000020H.0   000020H.0   00002FH.7   000000H.3 BIT
FF0000H     FF0000H     FFFFFFH     000004H   CONST
000000H     000000H     00007FH     000008H   DATA


MEMORY MAP OF MODULE:  .\Out_File\SEEKFREE (board)


START     STOP      LENGTH    ALIGN  RELOC    MEMORY CLASS   SEGMENT NAME
=========================================================================
000000H   000007H   000008H   ---    AT..     DATA           "REG BANK 0"
000008H   00001CH   000015H   BYTE   UNIT     EDATA          ?ED?DL1A_INIT?SEEKFREE_DL1A
00001DH   00001FH   000003H   BYTE   UNIT     EDATA          ?ED?NVIC_SETPRIORITY?ZF_NVIC
000020H.0 000020H.1 000000H.2 BIT    UNIT     BIT            ?BI?RTCI_SET?RTC
000020H.2 000020H.2 000000H.1 BIT    UNIT     BIT            ?BI?RTC_INIT?RTC
000020H.3 000020H   000000H.5 ---    ---      **GAP**
000021H   00022AH   00020AH   BYTE   UNIT     EDATA          ?ED?EXTERN_IAP_WRITE_BYTES?ZF_EEPROM
00022BH   0002B6H   00008CH   BYTE   UNIT     EDATA          ?ED?DL1B_INIT?SEEKFREE_DL1B
0002B7H   00031BH   000065H   BYTE   UNIT     EDATA          ?ED?EEPROM
00031CH   00037AH   00005FH   BYTE   UNIT     EDATA          ?ED?ZF_SPRINTF?SEEKFREE_PRINTF
00037BH   0003CFH   000055H   BYTE   UNIT     EDATA          ?ED?SEEKFREE_BLUETOOTH_CH9141
0003D0H   000424H   000055H   BYTE   UNIT     EDATA          ?ED?SEEKFREE_WIRELESS
000425H   000479H   000055H   BYTE   UNIT     EDATA          ?ED?SEEKFREE_WIRELESS_CH573
00047AH   0004A9H   000030H   BYTE   UNIT     EDATA          ?ED?LCD_SHOWFLOAT_SIMSPI?SEEKFREE_18TFT
0004AAH   0004D9H   000030H   BYTE   UNIT     EDATA          ?ED?LCD_SHOWFLOAT?SEEKFREE_18TFT
0004DAH   000509H   000030H   BYTE   UNIT     EDATA          ?ED?IPS114_SHOWFLOAT_SIMSPI?SEEKFREE_IPS114_SPI
00050AH   000539H   000030H   BYTE   UNIT     EDATA          ?ED?IPS114_SHOWFLOAT?SEEKFREE_IPS114_SPI
00053AH   000569H   000030H   BYTE   UNIT     EDATA          ?ED?OLED_PRINTF_FLOAT?SEEKFREE_OLED
00056AH   000599H   000030H   BYTE   UNIT     EDATA          ?ED?OLED_PRINTF_FLOAT_SPI?SEEKFREE_OLED
00059AH   0005C8H   00002FH   BYTE   UNIT     EDATA          ?ED?DL1A_SET_MEASUREMENT_TIMING_BUDGET?SEEKFREE_DL1A
0005C9H   0005F4H   00002CH   BYTE   UNIT     EDATA          ?ED?LCD_SHOWINT32_SIMSPI?SEEKFREE_18TFT
0005F5H   000620H   00002CH   BYTE   UNIT     EDATA          ?ED?LCD_SHOWINT32?SEEKFREE_18TFT
000621H   00064CH   00002CH   BYTE   UNIT     EDATA          ?ED?IPS114_SHOWINT32_SIMSPI?SEEKFREE_IPS114_SPI
00064DH   000678H   00002CH   BYTE   UNIT     EDATA          ?ED?IPS114_SHOWINT32?SEEKFREE_IPS114_SPI
000679H   0006A4H   00002CH   BYTE   UNIT     EDATA          ?ED?OLED_PRINTF_INT32?SEEKFREE_OLED
0006A5H   0006D0H   00002CH   BYTE   UNIT     EDATA          ?ED?OLED_PRINTF_INT32_SPI?SEEKFREE_OLED
0006D1H   0006EFH   00001FH   BYTE   UNIT     EDATA          ?ED?DL1A_GET_MEASUREMENT_TIMING_BUDGET?SEEKFREE_DL1A
0006F0H   00070CH   00001DH   BYTE   UNIT     EDATA          ?ED?MENU
00070DH   000727H   00001BH   BYTE   UNIT     EDATA          ?ED?USER_TIME
000728H   00073BH   000014H   BYTE   UNIT     EDATA          ?ED?PWM_INIT?ZF_PWM
00073CH   00074FH   000014H   BYTE   UNIT     EDATA          ?ED?PWM_FREQ?ZF_PWM
000750H   000763H   000014H   BYTE   UNIT     EDATA          ?ED?NUMBER_CONVERSION_ASCII?SEEKFREE_PRINTF
000764H   000776H   000013H   BYTE   UNIT     EDATA          ?ED?FIFO_READ_BUFFER?ZF_FIFO
000777H   000788H   000012H   BYTE   UNIT     EDATA          ?ED?SEEKFREE_IMU963RA
000789H   00079AH   000012H   BYTE   UNIT     EDATA          ?ED?OLED_DIS_BMP?SEEKFREE_OLED
00079BH   0007ACH   000012H   BYTE   UNIT     EDATA          ?ED?OLED_DIS_BMP_SPI?SEEKFREE_OLED
0007ADH   0007BCH   000010H   BYTE   UNIT     EDATA          ?ED?FIFO_WRITE_BUFFER?ZF_FIFO
0007BDH   0007CCH   000010H   BYTE   UNIT     EDATA          ?ED?DL1B_IIC_TRANSFER_8BIT_ARRAY?SEEKFREE_DL1B
0007CDH   0007DAH   00000EH   BYTE   UNIT     EDATA          ?ED?PWM_DUTY?ZF_PWM
0007DBH   0007E8H   00000EH   BYTE   UNIT     EDATA          ?ED?UART_INIT?ZF_UART
0007E9H   0007F6H   00000EH   BYTE   UNIT     EDATA          ?ED?OLED_PRINT_CHINESE?SEEKFREE_OLED
0007F7H   000804H   00000EH   BYTE   UNIT     EDATA          ?ED?OLED_PRINT_CHINESE_SPI?SEEKFREE_OLED
L251 LINKER/LOCATER V4.66.93.0                                                        07/31/2023  12:50:11  PAGE 4


000805H   000812H   00000EH   BYTE   UNIT     EDATA          ?ED?DATA_CONVERSION?SEEKFREE_VIRSCO
000813H   000820H   00000EH   BYTE   UNIT     EDATA          ?ED?KEY
000821H   00082DH   00000DH   BYTE   UNIT     EDATA          ?ED?ICM20602_SIMSPI_R_REG_BYTES?SEEKFREE_ICM20602
00082EH   00083AH   00000DH   BYTE   UNIT     EDATA          ?ED?PRINTF_REVERSE_ORDER?SEEKFREE_PRINTF
00083BH   000846H   00000CH   BYTE   UNIT     EDATA          ?ED?FIFO_INIT?ZF_FIFO
000847H   000852H   00000CH   BYTE   UNIT     EDATA          ?ED?LCD_SHOWINT16_SIMSPI?SEEKFREE_18TFT
000853H   00085EH   00000CH   BYTE   UNIT     EDATA          ?ED?LCD_SHOWUINT16_SIMSPI?SEEKFREE_18TFT
00085FH   00086AH   00000CH   BYTE   UNIT     EDATA          ?ED?LCD_SHOWINT16?SEEKFREE_18TFT
00086BH   000876H   00000CH   BYTE   UNIT     EDATA          ?ED?LCD_SHOWUINT16?SEEKFREE_18TFT
000877H   000882H   00000CH   BYTE   UNIT     EDATA          ?ED?SHOWIMAGE?SEEKFREE_18TFT
000883H   00088EH   00000CH   BYTE   UNIT     EDATA          ?ED?BLUETOOTH_CH9141_READ_BUFF?SEEKFREE_BLUETOOTH_CH9141
00088FH   00089AH   00000CH   BYTE   UNIT     EDATA          ?ED?DL1A_GET_SPAD_INFO?SEEKFREE_DL1A
00089BH   0008A6H   00000CH   BYTE   UNIT     EDATA          ?ED?DL1A_GET_SEQUENCE_STEP_TIMEOUTS?SEEKFREE_DL1A
0008A7H   0008B2H   00000CH   BYTE   UNIT     EDATA          ?ED?SEEKFREE_ICM20602
0008B3H   0008BEH   00000CH   BYTE   UNIT     EDATA          ?ED?SEEKFREE_IMU660RA
0008BFH   0008CAH   00000CH   BYTE   UNIT     EDATA          ?ED?IPS114_SHOWINT16_SIMSPI?SEEKFREE_IPS114_SPI
0008CBH   0008D6H   00000CH   BYTE   UNIT     EDATA          ?ED?IPS114_SHOWUINT16_SIMSPI?SEEKFREE_IPS114_SPI
0008D7H   0008E2H   00000CH   BYTE   UNIT     EDATA          ?ED?IPS114_SHOWINT16?SEEKFREE_IPS114_SPI
0008E3H   0008EEH   00000CH   BYTE   UNIT     EDATA          ?ED?IPS114_SHOWUINT16?SEEKFREE_IPS114_SPI
0008EFH   0008FAH   00000CH   BYTE   UNIT     EDATA          ?ED?SEEKFREE_MPU6050
0008FBH   000906H   00000CH   BYTE   UNIT     EDATA          ?ED?WIRELESS_UART_READ_BUFF?SEEKFREE_WIRELESS
000907H   000912H   00000CH   BYTE   UNIT     EDATA          ?ED?WIRELESS_CH573_READ_BUFF?SEEKFREE_WIRELESS_CH573
000913H   00091DH   00000BH   BYTE   UNIT     EDATA          ?ED?OLED_UINT16?SEEKFREE_OLED
00091EH   000928H   00000BH   BYTE   UNIT     EDATA          ?ED?OLED_INT16?SEEKFREE_OLED
000929H   000933H   00000BH   BYTE   UNIT     EDATA          ?ED?OLED_UINT16_SPI?SEEKFREE_OLED
000934H   00093EH   00000BH   BYTE   UNIT     EDATA          ?ED?OLED_INT16_SPI?SEEKFREE_OLED
00093FH   000949H   00000BH   BYTE   UNIT     EDATA          ?ED?SAVE_INT?EEPROM
00094AH   000954H   00000BH   BYTE   UNIT     EDATA          ?ED?READ_INT?EEPROM
000955H   00095FH   00000BH   BYTE   UNIT     EDATA          ?ED?SAVE_FLOAT?EEPROM
000960H   00096AH   00000BH   BYTE   UNIT     EDATA          ?ED?READ_FLOAT?EEPROM
00096BH   000974H   00000AH   BYTE   UNIT     EDATA          ?ED?IAP_READ_BYTES?ZF_EEPROM
000975H   00097EH   00000AH   BYTE   UNIT     EDATA          ?ED?IAP_WRITE_BYTES?ZF_EEPROM
00097FH   000988H   00000AH   BYTE   UNIT     EDATA          ?ED?LCD_SHOWSTR_SIMSPI?SEEKFREE_18TFT
000989H   000992H   00000AH   BYTE   UNIT     EDATA          ?ED?LCD_SHOWSTR?SEEKFREE_18TFT
000993H   00099CH   00000AH   BYTE   UNIT     EDATA          ?ED?BLUETOOTH_CH9141_SEND_BUFF?SEEKFREE_BLUETOOTH_CH9141
00099DH   0009A6H   00000AH   BYTE   UNIT     EDATA          ?ED?DL1A_SIMIIC_READ_REGS?SEEKFREE_DL1A
0009A7H   0009B0H   00000AH   BYTE   UNIT     EDATA          ?ED?DL1A_SIMIIC_READ_REGS_1?SEEKFREE_DL1A
0009B1H   0009BAH   00000AH   BYTE   UNIT     EDATA          ?ED?DL1A_ENCODE_TIMEOUT?SEEKFREE_DL1A
0009BBH   0009C4H   00000AH   BYTE   UNIT     EDATA          ?ED?IPS114_SHOWSTR_SIMSPI?SEEKFREE_IPS114_SPI
0009C5H   0009CEH   00000AH   BYTE   UNIT     EDATA          ?ED?IPS114_SHOWSTR?SEEKFREE_IPS114_SPI
0009CFH   0009D8H   00000AH   BYTE   UNIT     EDATA          ?ED?SEEKFREE_VIRSCO
0009D9H   0009E1H   000009H   BYTE   UNIT     EDATA          ?ED?LCD_SHOWINT8_SIMSPI?SEEKFREE_18TFT
0009E2H   0009EAH   000009H   BYTE   UNIT     EDATA          ?ED?LCD_SHOWUINT8_SIMSPI?SEEKFREE_18TFT
0009EBH   0009F3H   000009H   BYTE   UNIT     EDATA          ?ED?LCD_SHOWINT8?SEEKFREE_18TFT
0009F4H   0009FCH   000009H   BYTE   UNIT     EDATA          ?ED?LCD_SHOWUINT8?SEEKFREE_18TFT
0009FDH   000A05H   000009H   BYTE   UNIT     EDATA          ?ED?DL1A_SIMIIC_WRITE_DATS?SEEKFREE_DL1A
000A06H   000A0EH   000009H   BYTE   UNIT     EDATA          ?ED?DL1A_TIMEOUT_MICROSECONDS_TO_MCLKS?SEEKFREE_DL1A
000A0FH   000A17H   000009H   BYTE   UNIT     EDATA          ?ED?DL1A_SET_SIGNAL_RATE_LIMIT?SEEKFREE_DL1A
000A18H   000A20H   000009H   BYTE   UNIT     EDATA          ?ED?ICM20602_READ_REGISTERS?SEEKFREE_ICM20602
000A21H   000A29H   000009H   BYTE   UNIT     EDATA          ?ED?IMU660RA_SIMSPI_W_REG_BYTES?SEEKFREE_IMU660RA
000A2AH   000A32H   000009H   BYTE   UNIT     EDATA          ?ED?IMU660RA_SIMSPI_R_REG_BYTES?SEEKFREE_IMU660RA
000A33H   000A3BH   000009H   BYTE   UNIT     EDATA          ?ED?IMU660RA_WRITE_REGISTERS?SEEKFREE_IMU660RA
000A3CH   000A44H   000009H   BYTE   UNIT     EDATA          ?ED?IMU660RA_READ_REGISTERS?SEEKFREE_IMU660RA
000A45H   000A4DH   000009H   BYTE   UNIT     EDATA          ?ED?IMU963RA_SIMSPI_R_REG_BYTES?SEEKFREE_IMU963RA
000A4EH   000A56H   000009H   BYTE   UNIT     EDATA          ?ED?IMU963RA_READ_ACC_GYRO_REGISTERS?SEEKFREE_IMU963RA
000A57H   000A5FH   000009H   BYTE   UNIT     EDATA          ?ED?IPS114_SHOWINT8_SIMSPI?SEEKFREE_IPS114_SPI
000A60H   000A68H   000009H   BYTE   UNIT     EDATA          ?ED?IPS114_SHOWUINT8_SIMSPI?SEEKFREE_IPS114_SPI
000A69H   000A71H   000009H   BYTE   UNIT     EDATA          ?ED?IPS114_SHOWINT8?SEEKFREE_IPS114_SPI
000A72H   000A7AH   000009H   BYTE   UNIT     EDATA          ?ED?IPS114_SHOWUINT8?SEEKFREE_IPS114_SPI
000A7BH   000A83H   000009H   BYTE   UNIT     EDATA          ?ED?OLED_P6X8STR?SEEKFREE_OLED
000A84H   000A8CH   000009H   BYTE   UNIT     EDATA          ?ED?OLED_P8X16STR?SEEKFREE_OLED
000A8DH   000A95H   000009H   BYTE   UNIT     EDATA          ?ED?OLED_P6X8STR_SPI?SEEKFREE_OLED
000A96H   000A9EH   000009H   BYTE   UNIT     EDATA          ?ED?OLED_P8X16STR_SPI?SEEKFREE_OLED
000A9FH   000AA7H   000009H   BYTE   UNIT     EDATA          ?ED?CRC_CHECK?SEEKFREE_VIRSCO
000AA8H   000AAFH   000008H   BYTE   UNIT     EDATA          ?ED?UART_PUTBUFF?ZF_UART
L251 LINKER/LOCATER V4.66.93.0                                                        07/31/2023  12:50:11  PAGE 5


000AB0H   000AB7H   000008H   BYTE   UNIT     EDATA          ?ED?FIFO_HEAD_OFFSET?ZF_FIFO
000AB8H   000ABFH   000008H   BYTE   UNIT     EDATA          ?ED?FIFO_END_OFFSET?ZF_FIFO
000AC0H   000AC7H   000008H   BYTE   UNIT     EDATA          ?ED?LCD_SET_REGION_SIMSPI?SEEKFREE_18TFT
000AC8H   000ACFH   000008H   BYTE   UNIT     EDATA          ?ED?LCD_SHOWCHAR_SIMSPI?SEEKFREE_18TFT
000AD0H   000AD7H   000008H   BYTE   UNIT     EDATA          ?ED?LCD_SET_REGION?SEEKFREE_18TFT
000AD8H   000ADFH   000008H   BYTE   UNIT     EDATA          ?ED?LCD_SHOWCHAR?SEEKFREE_18TFT
000AE0H   000AE7H   000008H   BYTE   UNIT     EDATA          ?ED?IPS114_SET_REGION_SIMSPI?SEEKFREE_IPS114_SPI
000AE8H   000AEFH   000008H   BYTE   UNIT     EDATA          ?ED?IPS114_SHOWCHAR_SIMSPI?SEEKFREE_IPS114_SPI
000AF0H   000AF7H   000008H   BYTE   UNIT     EDATA          ?ED?IPS114_SET_REGION?SEEKFREE_IPS114_SPI
000AF8H   000AFFH   000008H   BYTE   UNIT     EDATA          ?ED?IPS114_SHOWCHAR?SEEKFREE_IPS114_SPI
000B00H   000B07H   000008H   BYTE   UNIT     EDATA          ?ED?OLED_HEXASCII?SEEKFREE_OLED
000B08H   000B0FH   000008H   BYTE   UNIT     EDATA          ?ED?OLED_HEXASCII_SPI?SEEKFREE_OLED
000B10H   000B17H   000008H   BYTE   UNIT     EDATA          ?ED?KEYSTROKE_FLOAT?MENU
000B18H   000B1EH   000007H   BYTE   UNIT     EDATA          ?ED?SPI_INIT?ZF_SPI
000B1FH   000B25H   000007H   BYTE   UNIT     EDATA          ?ED?DL1A_TIMEOUT_MCLKS_TO_MICROSECONDS?SEEKFREE_DL1A
000B26H   000B2CH   000007H   BYTE   UNIT     EDATA          ?ED?IMU660RA_GET_ACC?SEEKFREE_IMU660RA
000B2DH   000B33H   000007H   BYTE   UNIT     EDATA          ?ED?IMU660RA_GET_GYRO?SEEKFREE_IMU660RA
000B34H   000B3AH   000007H   BYTE   UNIT     EDATA          ?ED?IMU963RA_GET_MAG?SEEKFREE_IMU963RA
000B3BH   000B41H   000007H   BYTE   UNIT     EDATA          ?ED?MPU6050_SIMIIC_READ_REGS?SEEKFREE_MPU6050
000B42H   000B48H   000007H   BYTE   UNIT     EDATA          ?ED?RTC_SET?RTC
000B49H   000B4EH   000006H   BYTE   UNIT     EDATA          ?ED?ADC_ONCE?ZF_ADC
000B4FH   000B54H   000006H   BYTE   UNIT     EDATA          ?ED?DELAY_US?ZF_DELAY
000B55H   000B5AH   000006H   BYTE   UNIT     EDATA          ?ED?PIT_TIMER_MS?ZF_TIM
000B5BH   000B60H   000006H   BYTE   UNIT     EDATA          ?ED?UART_PUTSTR?ZF_UART
000B61H   000B66H   000006H   BYTE   UNIT     EDATA          ?ED?LCD_DRAWPOINT_SIMSPI?SEEKFREE_18TFT
000B67H   000B6CH   000006H   BYTE   UNIT     EDATA          ?ED?LCD_DRAWPOINT?SEEKFREE_18TFT
000B6DH   000B72H   000006H   BYTE   UNIT     EDATA          ?ED?ICM20602_GET_ACC?SEEKFREE_ICM20602
000B73H   000B78H   000006H   BYTE   UNIT     EDATA          ?ED?ICM20602_GET_GYRO?SEEKFREE_ICM20602
000B79H   000B7EH   000006H   BYTE   UNIT     EDATA          ?ED?ICM20602_ACC_TRANSITION?SEEKFREE_ICM20602
000B7FH   000B84H   000006H   BYTE   UNIT     EDATA          ?ED?ICM20602_GYRO_TRANSITION?SEEKFREE_ICM20602
000B85H   000B8AH   000006H   BYTE   UNIT     EDATA          ?ED?IMU660RA_ACC_TRANSITION?SEEKFREE_IMU660RA
000B8BH   000B90H   000006H   BYTE   UNIT     EDATA          ?ED?IMU660RA_GYRO_TRANSITION?SEEKFREE_IMU660RA
000B91H   000B96H   000006H   BYTE   UNIT     EDATA          ?ED?IMU963RA_WRITE_MAG_REGISTER?SEEKFREE_IMU963RA
000B97H   000B9CH   000006H   BYTE   UNIT     EDATA          ?ED?IMU963RA_GET_ACC?SEEKFREE_IMU963RA
000B9DH   000BA2H   000006H   BYTE   UNIT     EDATA          ?ED?IMU963RA_GET_GYRO?SEEKFREE_IMU963RA
000BA3H   000BA8H   000006H   BYTE   UNIT     EDATA          ?ED?IMU963RA_ACC_TRANSITION?SEEKFREE_IMU963RA
000BA9H   000BAEH   000006H   BYTE   UNIT     EDATA          ?ED?IMU963RA_GYRO_TRANSITION?SEEKFREE_IMU963RA
000BAFH   000BB4H   000006H   BYTE   UNIT     EDATA          ?ED?IMU963RA_MAG_TRANSITION?SEEKFREE_IMU963RA
000BB5H   000BBAH   000006H   BYTE   UNIT     EDATA          ?ED?IPS114_CLEAR_SIMSPI?SEEKFREE_IPS114_SPI
000BBBH   000BC0H   000006H   BYTE   UNIT     EDATA          ?ED?IPS114_DRAWPOINT_SIMSPI?SEEKFREE_IPS114_SPI
000BC1H   000BC6H   000006H   BYTE   UNIT     EDATA          ?ED?IPS114_CLEAR?SEEKFREE_IPS114_SPI
000BC7H   000BCCH   000006H   BYTE   UNIT     EDATA          ?ED?IPS114_DRAWPOINT?SEEKFREE_IPS114_SPI
000BCDH   000BD2H   000006H   BYTE   UNIT     EDATA          ?ED?MPU6050_GET_ACCDATA?SEEKFREE_MPU6050
000BD3H   000BD8H   000006H   BYTE   UNIT     EDATA          ?ED?MPU6050_GET_GYRO?SEEKFREE_MPU6050
000BD9H   000BDEH   000006H   BYTE   UNIT     EDATA          ?ED?WIRELESS_UART_SEND_BUFF?SEEKFREE_WIRELESS
000BDFH   000BE4H   000006H   BYTE   UNIT     EDATA          ?ED?WIRELESS_CH573_SEND_BUFF?SEEKFREE_WIRELESS_CH573
000BE5H   000BEAH   000006H   BYTE   UNIT     EDATA          ?ED?HAVE_SUB_MENU?MENU
000BEBH   000BF0H   000006H   BYTE   UNIT     EDATA          ?ED?KEYSTROKE_INT?MENU
000BF1H   000BF6H   000006H   BYTE   UNIT     EDATA          ?ED?TIME_INPUT_LIMIT?USER_TIME
000BF7H   000BFBH   000005H   BYTE   UNIT     EDATA          ?ED?ZF_UART
000BFCH   000C00H   000005H   BYTE   UNIT     EDATA          ?ED?DL1A_GET_SEQUENCE_STEP_ENABLES?SEEKFREE_DL1A
000C01H   000C05H   000005H   BYTE   UNIT     EDATA          ?ED?DL1A_PERFORM_SINGLE_REF_CALIBRATION?SEEKFREE_DL1A
000C06H   000C0AH   000005H   BYTE   UNIT     EDATA          ?ED?DL1B_GET_DISTANCE?SEEKFREE_DL1B
000C0BH   000C0FH   000005H   BYTE   UNIT     EDATA          ?ED?ICM20602_SIMSPI_R_REG_BYTE?SEEKFREE_ICM20602
000C10H   000C14H   000005H   BYTE   UNIT     EDATA          ?ED?IMU963RA_SIMSPI_R_REG_BYTE?SEEKFREE_IMU963RA
000C15H   000C18H   000004H   BYTE   UNIT     EDATA          ?ED?BOARD
000C19H   000C1CH   000004H   BYTE   UNIT     EDATA          ?ED?ADC_INIT?ZF_ADC
000C1DH   000C20H   000004H   BYTE   UNIT     EDATA          ?ED?ZF_DELAY
000C21H   000C24H   000004H   BYTE   UNIT     EDATA          ?ED?DELAY_MS?ZF_DELAY
000C25H   000C28H   000004H   BYTE   UNIT     EDATA          ?ED?IAP_ERASE_PAGE?ZF_EEPROM
000C29H   000C2CH   000004H   BYTE   UNIT     EDATA          ?ED?EXIT_INIT?ZF_EXTI
000C2DH   000C30H   000004H   BYTE   UNIT     EDATA          ?ED?GPIO_PULL_SET?ZF_GPIO
000C31H   000C34H   000004H   BYTE   UNIT     EDATA          ?ED?GPIO_MODE?ZF_GPIO
000C35H   000C38H   000004H   BYTE   UNIT     EDATA          ?ED?CTIMER_COUNT_READ?ZF_TIM
000C39H   000C3CH   000004H   BYTE   UNIT     EDATA          ?ED?FIFO_CLEAR?ZF_FIFO
L251 LINKER/LOCATER V4.66.93.0                                                        07/31/2023  12:50:11  PAGE 6


000C3DH   000C40H   000004H   BYTE   UNIT     EDATA          ?ED?FIFO_USED?ZF_FIFO
000C41H   000C44H   000004H   BYTE   UNIT     EDATA          ?ED?LCD_CLEAR_SIMSPI?SEEKFREE_18TFT
000C45H   000C48H   000004H   BYTE   UNIT     EDATA          ?ED?LCD_WRITEDATA_16BIT?SEEKFREE_18TFT
000C49H   000C4CH   000004H   BYTE   UNIT     EDATA          ?ED?LCD_CLEAR?SEEKFREE_18TFT
000C4DH   000C50H   000004H   BYTE   UNIT     EDATA          ?ED?SEEKFREE_DL1B
000C51H   000C54H   000004H   BYTE   UNIT     EDATA          ?ED?ICM20602_SELF_CHECK?SEEKFREE_ICM20602
000C55H   000C58H   000004H   BYTE   UNIT     EDATA          ?ED?ICM20602_INIT?SEEKFREE_ICM20602
000C59H   000C5CH   000004H   BYTE   UNIT     EDATA          ?ED?IMU660RA_SELF_CHECK?SEEKFREE_IMU660RA
000C5DH   000C60H   000004H   BYTE   UNIT     EDATA          ?ED?IMU963RA_READ_MAG_REGISTER?SEEKFREE_IMU963RA
000C61H   000C64H   000004H   BYTE   UNIT     EDATA          ?ED?IMU963RA_ACC_GYRO_SELF_CHECK?SEEKFREE_IMU963RA
000C65H   000C68H   000004H   BYTE   UNIT     EDATA          ?ED?IMU963RA_MAG_SELF_CHECK?SEEKFREE_IMU963RA
000C69H   000C6CH   000004H   BYTE   UNIT     EDATA          ?ED?IPS114_WRITEDATA_16BIT?SEEKFREE_IPS114_SPI
000C6DH   000C70H   000004H   BYTE   UNIT     EDATA          ?ED?KEYSTROKE_SPECIAL_VALUE?MENU
000C71H   000C73H   000003H   BYTE   UNIT     EDATA          ?ED?UART_PUTCHAR?ZF_UART
000C74H   000C76H   000003H   BYTE   UNIT     EDATA          ?ED?LCD_WRITEDATA_16BIT_SIMSPI?SEEKFREE_18TFT
000C77H   000C79H   000003H   BYTE   UNIT     EDATA          ?ED?SEEKFREE_DL1A
000C7AH   000C7CH   000003H   BYTE   UNIT     EDATA          ?ED?DL1A_READ_CH?SEEKFREE_DL1A
000C7DH   000C7FH   000003H   BYTE   UNIT     EDATA          ?ED?DL1A_SIMIIC_WRITE_REG?SEEKFREE_DL1A
000C80H   000C82H   000003H   BYTE   UNIT     EDATA          ?ED?DL1A_SIMIIC_READ_REG?SEEKFREE_DL1A
000C83H   000C85H   000003H   BYTE   UNIT     EDATA          ?ED?DL1A_GET_VCSEL_PULSE_PERIOD?SEEKFREE_DL1A
000C86H   000C88H   000003H   BYTE   UNIT     EDATA          ?ED?DL1A_GET_DISTANCE?SEEKFREE_DL1A
000C89H   000C8BH   000003H   BYTE   UNIT     EDATA          ?ED?DL1B_READ_CH?SEEKFREE_DL1B
000C8CH   000C8EH   000003H   BYTE   UNIT     EDATA          ?ED?IMU660RA_READ_REGISTER?SEEKFREE_IMU660RA
000C8FH   000C91H   000003H   BYTE   UNIT     EDATA          ?ED?IPS114_WRITEDATAI_16BIT_SIMSPI?SEEKFREE_IPS114_SPI
000C92H   000C94H   000003H   BYTE   UNIT     EDATA          ?ED?MPU6050_READ_CH?SEEKFREE_MPU6050
000C95H   000C97H   000003H   BYTE   UNIT     EDATA          ?ED?MPU6050_SIMIIC_WRITE_REG?SEEKFREE_MPU6050
000C98H   000C9AH   000003H   BYTE   UNIT     EDATA          ?ED?MPU6050_SIMIIC_READ_REG?SEEKFREE_MPU6050
000C9BH   000C9DH   000003H   BYTE   UNIT     EDATA          ?ED?OLED_FILL?SEEKFREE_OLED
000C9EH   000CA0H   000003H   BYTE   UNIT     EDATA          ?ED?OLED_PUTPIXEL?SEEKFREE_OLED
000CA1H   000CA3H   000003H   BYTE   UNIT     EDATA          ?ED?OLED_FILL_SPI?SEEKFREE_OLED
000CA4H   000CA6H   000003H   BYTE   UNIT     EDATA          ?ED?OLED_PUTPIXEL_SPI?SEEKFREE_OLED
000CA7H   000CA8H   000002H   BYTE   UNIT     EDATA          ?ED?COMMON
000CA9H   000CAAH   000002H   BYTE   UNIT     EDATA          ?ED?PWM_SET_GPIO?ZF_PWM
000CABH   000CACH   000002H   BYTE   UNIT     EDATA          ?ED?SPI_CHANGE_PIN?ZF_SPI
000CADH   000CAEH   000002H   BYTE   UNIT     EDATA          ?ED?CTIMER_COUNT_INIT?ZF_TIM
000CAFH   000CB0H   000002H   BYTE   UNIT     EDATA          ?ED?CTIMER_COUNT_CLEAN?ZF_TIM
000CB1H   000CB2H   000002H   BYTE   UNIT     EDATA          ?ED?LCD_WRITEINDEX_SIMSPI?SEEKFREE_18TFT
000CB3H   000CB4H   000002H   BYTE   UNIT     EDATA          ?ED?LCD_WRITEDATA_SIMSPI?SEEKFREE_18TFT
000CB5H   000CB6H   000002H   BYTE   UNIT     EDATA          ?ED?DL1A_SIMIIC_DELAY?SEEKFREE_DL1A
000CB7H   000CB8H   000002H   BYTE   UNIT     EDATA          ?ED?DL1A_SEND_CH?SEEKFREE_DL1A
000CB9H   000CBAH   000002H   BYTE   UNIT     EDATA          ?ED?DL1A_DECODE_TIMEOUT?SEEKFREE_DL1A
000CBBH   000CBCH   000002H   BYTE   UNIT     EDATA          ?ED?DL1B_SIMIIC_DELAY?SEEKFREE_DL1B
000CBDH   000CBEH   000002H   BYTE   UNIT     EDATA          ?ED?DL1B_SEND_CH?SEEKFREE_DL1B
000CBFH   000CC0H   000002H   BYTE   UNIT     EDATA          ?ED?ICM20602_SIMSPI_WR_BYTE?SEEKFREE_ICM20602
000CC1H   000CC2H   000002H   BYTE   UNIT     EDATA          ?ED?ICM20602_SIMSPI_W_REG_BYTE?SEEKFREE_ICM20602
000CC3H   000CC4H   000002H   BYTE   UNIT     EDATA          ?ED?ICM20602_WRITE_REGISTER?SEEKFREE_ICM20602
000CC5H   000CC6H   000002H   BYTE   UNIT     EDATA          ?ED?ICM20602_READ_REGISTER?SEEKFREE_ICM20602
000CC7H   000CC8H   000002H   BYTE   UNIT     EDATA          ?ED?IMU660RA_SIMSPI_WR_BYTE?SEEKFREE_IMU660RA
000CC9H   000CCAH   000002H   BYTE   UNIT     EDATA          ?ED?IMU660RA_SIMSPI_W_REG_BYTE?SEEKFREE_IMU660RA
000CCBH   000CCCH   000002H   BYTE   UNIT     EDATA          ?ED?IMU660RA_WRITE_REGISTER?SEEKFREE_IMU660RA
000CCDH   000CCEH   000002H   BYTE   UNIT     EDATA          ?ED?IMU963RA_SIMSPI_WR_BYTE?SEEKFREE_IMU963RA
000CCFH   000CD0H   000002H   BYTE   UNIT     EDATA          ?ED?IMU963RA_SIMSPI_W_REG_BYTE?SEEKFREE_IMU963RA
000CD1H   000CD2H   000002H   BYTE   UNIT     EDATA          ?ED?IMU963RA_WRITE_ACC_GYRO_REGISTER?SEEKFREE_IMU963RA
000CD3H   000CD4H   000002H   BYTE   UNIT     EDATA          ?ED?IMU963RA_READ_ACC_GYRO_REGISTER?SEEKFREE_IMU963RA
000CD5H   000CD6H   000002H   BYTE   UNIT     EDATA          ?ED?IMU963RA_CONNECT_MAG?SEEKFREE_IMU963RA
000CD7H   000CD8H   000002H   BYTE   UNIT     EDATA          ?ED?IPS114_WRITEINDEX_SIMSPI?SEEKFREE_IPS114_SPI
000CD9H   000CDAH   000002H   BYTE   UNIT     EDATA          ?ED?IPS114_WRITEDATA_SIMSPI?SEEKFREE_IPS114_SPI
000CDBH   000CDCH   000002H   BYTE   UNIT     EDATA          ?ED?MPU6050_SIMIIC_DELAY?SEEKFREE_MPU6050
000CDDH   000CDEH   000002H   BYTE   UNIT     EDATA          ?ED?MPU6050_SEND_CH?SEEKFREE_MPU6050
000CDFH   000CE0H   000002H   BYTE   UNIT     EDATA          ?ED?OLED_WRDAT?SEEKFREE_OLED
000CE1H   000CE2H   000002H   BYTE   UNIT     EDATA          ?ED?OLED_WRCMD?SEEKFREE_OLED
000CE3H   000CE4H   000002H   BYTE   UNIT     EDATA          ?ED?OLED_SET_POS?SEEKFREE_OLED
000CE5H   000CE6H   000002H   BYTE   UNIT     EDATA          ?ED?OLED_CLRPIXEL?SEEKFREE_OLED
000CE7H   000CE8H   000002H   BYTE   UNIT     EDATA          ?ED?OLED_SET_POS_SPI?SEEKFREE_OLED
000CE9H   000CEAH   000002H   BYTE   UNIT     EDATA          ?ED?OLED_CLRPIXEL_SPI?SEEKFREE_OLED
L251 LINKER/LOCATER V4.66.93.0                                                        07/31/2023  12:50:11  PAGE 7


000CEBH   000CEBH   000001H   BYTE   UNIT     EDATA          ?ED?PUTCHAR?BOARD
000CECH   000CECH   000001H   BYTE   UNIT     EDATA          ?ED?IAP_SET_TPS?ZF_EEPROM
000CEDH   000CEDH   000001H   BYTE   UNIT     EDATA          ?ED?SPI_MOSI?ZF_SPI
000CEEH   000CEEH   000001H   BYTE   UNIT     EDATA          ?ED?SPI_CHANGE_MODE?ZF_SPI
000CEFH   000CEFH   000001H   BYTE   UNIT     EDATA          ?ED?LCD_WRITEINDEX?SEEKFREE_18TFT
000CF0H   000CF0H   000001H   BYTE   UNIT     EDATA          ?ED?LCD_WRITEDATA?SEEKFREE_18TFT
000CF1H   000CF1H   000001H   BYTE   UNIT     EDATA          ?ED?DL1A_SIMIIC_SENDACK?SEEKFREE_DL1A
000CF2H   000CF2H   000001H   BYTE   UNIT     EDATA          ?ED?DL1B_SIMIIC_SENDACK?SEEKFREE_DL1B
000CF3H   000CF3H   000001H   BYTE   UNIT     EDATA          ?ED?IMU660RA_INIT?SEEKFREE_IMU660RA
000CF4H   000CF4H   000001H   BYTE   UNIT     EDATA          ?ED?IMU963RA_INIT?SEEKFREE_IMU963RA
000CF5H   000CF5H   000001H   BYTE   UNIT     EDATA          ?ED?IPS114_WRITEINDEX?SEEKFREE_IPS114_SPI
000CF6H   000CF6H   000001H   BYTE   UNIT     EDATA          ?ED?IPS114_WRITEDATA?SEEKFREE_IPS114_SPI
000CF7H   000CF7H   000001H   BYTE   UNIT     EDATA          ?ED?MPU6050_SIMIIC_SENDACK?SEEKFREE_MPU6050
000CF8H   000CF8H   000001H   BYTE   UNIT     EDATA          ?ED?OLED_WRDAT_SPI?SEEKFREE_OLED
000CF9H   000CF9H   000001H   BYTE   UNIT     EDATA          ?ED?OLED_WRCMD_SPI?SEEKFREE_OLED
000CFAH   000CFAH   000001H   BYTE   UNIT     EDATA          ?ED?UART1_ISR?ISR
000CFBH   000CFBH   000001H   BYTE   UNIT     EDATA          ?ED?ISR
000CFCH   000CFCH   000001H   BYTE   UNIT     EDATA          ?ED?CURSOR?MENU
000CFDH   000CFDH   000001H   BYTE   UNIT     EDATA          ?ED?MENU_ONE_DISPLAY?MENU
000CFEH   000CFEH   000001H   BYTE   UNIT     EDATA          ?ED?MENU_TWO_DISPLAY?MENU
000CFFH   000CFFH   000001H   BYTE   UNIT     EDATA          ?ED?RTCI_SET?RTC
000D00H   000D00H   000001H   BYTE   UNIT     EDATA          ?ED?USER_TIME_SYNC_RTC?USER_TIME
000D01H   000E00H   000100H   BYTE   UNIT     EDATA          ?STACK
000E01H   FEFFFFH   FEF1FFH   ---    ---      **GAP**
FF0000H   FF0002H   000003H   ---    OFFS..   CODE           ?CO?start251?4
FF0003H   FF0005H   000003H   ---    OFFS..   CODE           ?PR?IV?0
FF0006H   FF0009H   000004H   BYTE   INSEG    CODE           ?PR?ENABLEGLOBALIRQ?BOARD
FF000AH   FF000AH   000001H   BYTE   INSEG    CODE           ?PR?INT1_ISR?ISR
FF000BH   FF000DH   000003H   ---    OFFS..   CODE           ?PR?IV?1
FF000EH   FF000EH   000001H   BYTE   INSEG    CODE           ?PR?TM0_ISR?ISR
FF000FH   FF000FH   000001H   BYTE   INSEG    CODE           ?PR?TM1_ISR?ISR
FF0010H   FF0010H   000001H   BYTE   INSEG    CODE           ?PR?KEYSTROKE_MENU_ONE_TWO?MENU
FF0011H   FF0012H   000002H   ---    ---      **GAP**
FF0013H   FF0015H   000003H   ---    OFFS..   CODE           ?PR?IV?2
FF0016H   FF0019H   000004H   BYTE   UNIT     CONST          ?CO?PRINTF
FF001AH   FF001AH   000001H   ---    ---      **GAP**
FF001BH   FF001DH   000003H   ---    OFFS..   CODE           ?PR?IV?3
FF001EH   FF0022H   000005H   ---    ---      **GAP**
FF0023H   FF0025H   000003H   ---    OFFS..   CODE           ?PR?IV?4
FF0026H   FF0042H   00001DH   BYTE   INSEG    CODE           ?PR?DL1A_SIMIIC_DELAY?SEEKFREE_DL1A
FF0043H   FF0045H   000003H   ---    OFFS..   CODE           ?PR?IV?8
FF0046H   FF004DH   000008H   BYTE   INSEG    CODE           ?PR?IAP_INIT?ZF_EEPROM
FF004EH   FF0052H   000005H   ---    ---      **GAP**
FF0053H   FF0055H   000003H   ---    OFFS..   CODE           ?PR?IV?10
FF0056H   FF005AH   000005H   ---    ---      **GAP**
FF005BH   FF005DH   000003H   ---    OFFS..   CODE           ?PR?IV?11
FF005EH   FF0062H   000005H   ---    ---      **GAP**
FF0063H   FF0065H   000003H   ---    OFFS..   CODE           ?PR?IV?12
FF0066H   FF006AH   000005H   ---    ---      **GAP**
FF006BH   FF006DH   000003H   ---    OFFS..   CODE           ?PR?IV?13
FF006EH   FF0082H   000015H   BYTE   INSEG    CODE           ?PR?EEPROM_TRIG?ZF_EEPROM
FF0083H   FF0085H   000003H   ---    OFFS..   CODE           ?PR?IV?16
FF0086H   FF008AH   000005H   ---    ---      **GAP**
FF008BH   FF008DH   000003H   ---    OFFS..   CODE           ?PR?IV?17
FF008EH   FF0092H   000005H   ---    ---      **GAP**
FF0093H   FF0095H   000003H   ---    OFFS..   CODE           ?PR?IV?18
FF0096H   FF009AH   000005H   ---    ---      **GAP**
FF009BH   FF009DH   000003H   ---    OFFS..   CODE           ?PR?IV?19
FF009EH   FF00A2H   000005H   ---    ---      **GAP**
FF00A3H   FF00A5H   000003H   ---    OFFS..   CODE           ?PR?IV?20
FF00A6H   FF212CH   002087H   BYTE   UNIT     CODE           ?CO?SEEKFREE_CONFIG
FF212DH   FF2F34H   000E08H   BYTE   UNIT     CODE           ?CO?SEEKFREE_FONT
FF2F35H   FF38CFH   00099BH   BYTE   UNIT     CODE           ?C?LIB_CODE
FF38D0H   FF41DCH   00090DH   BYTE   INSEG    CODE           ?PR?GPIO_MODE?ZF_GPIO
FF41DDH   FF483DH   000661H   BYTE   INSEG    CODE           ?PR?ZF_SPRINTF?SEEKFREE_PRINTF
L251 LINKER/LOCATER V4.66.93.0                                                        07/31/2023  12:50:11  PAGE 8


FF483EH   FF4AEFH   0002B2H   BYTE   INSEG    CODE           ?PR?UART_INIT?ZF_UART
FF4AF0H   FF4CF5H   000206H   BYTE   INSEG    CODE           ?PR?SET_CLK?BOARD
FF4CF6H   FF4EFAH   000205H   BYTE   INSEG    CODE           ?PR?KEYSTROKE_MENU_ONE_ONE?MENU
FF4EFBH   FF50EBH   0001F1H   BYTE   INSEG    CODE           ?PR?LCD_INIT?SEEKFREE_18TFT
FF50ECH   FF527DH   000192H   BYTE   INSEG    CODE           ?PR?RTC_ISR?RTC
FF527EH   FF53E6H   000169H   BYTE   INSEG    CODE           ?PR?DL1A_GET_SEQUENCE_STEP_TIMEOUTS?SEEKFREE_DL1A
FF53E7H   FF554BH   000165H   BYTE   INSEG    CODE           ?PR?MENU_ONE_DISPLAY?MENU
FF554CH   FF5685H   00013AH   BYTE   INSEG    CODE           ?PR?KEYSTROKE_SCAN?KEY
FF5686H   FF57BDH   000138H   BYTE   INSEG    CODE           ?PR?FIFO_WRITE_BUFFER?ZF_FIFO
FF57BEH   FF58D6H   000119H   BYTE   INSEG    CODE           ?PR?MENU_TWO_DISPLAY?MENU
FF58D7H   FF59EDH   000117H   BYTE   INSEG    CODE           ?PR?NUMBER_CONVERSION_ASCII?SEEKFREE_PRINTF
FF59EEH   FF5AEDH   000100H   BYTE   INSEG    CODE           ?PR?KEYSTROKE_MENU_HOME?MENU
FF5AEEH   FF5BE2H   0000F5H   BYTE   INSEG    CODE           ?PR?SPI_INIT?ZF_SPI
FF5BE3H   FF5CC7H   0000E5H   BYTE   INSEG    CODE           ?PR?PIT_TIMER_MS?ZF_TIM
FF5CC8H   FF5D95H   0000CEH   BYTE   INSEG    CODE           ?PR?LCD_SHOWINT32?SEEKFREE_18TFT
FF5D96H   FF5E61H   0000CCH   BYTE   INSEG    CODE           ?PR?KEYSTROKE_INT?MENU
FF5E62H   FF5F23H   0000C2H   BYTE   INSEG    CODE           ?PR?EXTERN_IAP_WRITE_BYTES?ZF_EEPROM
FF5F24H   FF5FE0H   0000BDH   BYTE   INSEG    CODE           ?PR?LCD_SHOWCHAR?SEEKFREE_18TFT
FF5FE1H   FF609AH   0000BAH   BYTE   INSEG    CODE           ?PR?CURSOR?MENU
FF609BH   FF614CH   0000B2H   BYTE   INSEG    CODE           ?PR?EEPROM_INIT?EEPROM
FF614DH   FF61F2H   0000A6H   BYTE   INSEG    CODE           ?PR?RTC_SET?RTC
FF61F3H   FF6293H   0000A1H   BYTE   INSEG    CODE           ?PR?KEYSTROKE_MENU?MENU
FF6294H   FF632AH   000097H   BYTE   INSEG    CODE           ?PR?BOARD_INIT?BOARD
FF632BH   FF63BFH   000095H   BYTE   INSEG    CODE           ?PR?PRINTF_REVERSE_ORDER?SEEKFREE_PRINTF
FF63C0H   FF6451H   000092H   BYTE   INSEG    CODE           ?PR?USER_TIME_SYNC_RTC?USER_TIME
FF6452H   FF64DFH   00008EH   BYTE   INSEG    CODE           ?PR?DL1A_GET_SEQUENCE_STEP_ENABLES?SEEKFREE_DL1A
FF64E0H   FF656DH   00008EH   BYTE   INSEG    CODE           ?PR?TIMER_FINISH?USER_TIME
FF656EH   FF65F9H   00008CH   BYTE   INSEG    CODE           ?PR?TIME_INPUT_LIMIT?USER_TIME
FF65FAH   FF6678H   00007FH   BYTE   INSEG    CODE           ?PR?DL1A_ENCODE_TIMEOUT?SEEKFREE_DL1A
FF6679H   FF66F2H   00007AH   BYTE   INSEG    CODE           ?PR?DL1A_GET_VCSEL_PULSE_PERIOD?SEEKFREE_DL1A
FF66F3H   FF676BH   000079H   BYTE   INSEG    CODE           ?PR?RTC_INIT?RTC
FF676CH   FF67E0H   000075H   BYTE   INSEG    CODE           ?PR?UART_PUTCHAR?ZF_UART
FF67E1H   FF6853H   000073H   BYTE   INSEG    CODE           ?PR?UART4_ISR?ISR
FF6854H   FF68C3H   000070H   BYTE   INSEG    CODE           ?PR?SAVE_INT?EEPROM
FF68C4H   FF692FH   00006CH   BYTE   INSEG    CODE           ?PR?IMU963RA_READ_MAG_REGISTER?SEEKFREE_IMU963RA
FF6930H   FF6999H   00006AH   BYTE   INSEG    CODE           ?PR?FIFO_HEAD_OFFSET?ZF_FIFO
FF699AH   FF6A03H   00006AH   BYTE   INSEG    CODE           ?PR?DL1A_READ_CH?SEEKFREE_DL1A
FF6A04H   FF6A6DH   00006AH   BYTE   INSEG    CODE           ?PR?DL1B_READ_CH?SEEKFREE_DL1B
FF6A6EH   FF6AD5H   000068H   BYTE   INSEG    CODE           ?PR?DL1A_SIMIIC_READ_REGS?SEEKFREE_DL1A
FF6AD6H   FF6B39H   000064H   BYTE   INSEG    CODE           ?PR?LCD_SET_REGION_SIMSPI?SEEKFREE_18TFT
FF6B3AH   FF6B9DH   000064H   BYTE   INSEG    CODE           ?PR?LCD_SET_REGION?SEEKFREE_18TFT
FF6B9EH   FF6BFFH   000062H   BYTE   INSEG    CODE           ?PR?IAP_READ_BYTES?ZF_EEPROM
FF6C00H   FF6C61H   000062H   BYTE   INSEG    CODE           ?PR?READ_INT?EEPROM
FF6C62H   FF6CC2H   000061H   BYTE   INSEG    CODE           ?PR?MENU_NEXT_BACK?MENU
FF6CC3H   FF6D20H   00005EH   BYTE   INSEG    CODE           ?PR?IAP_WRITE_BYTES?ZF_EEPROM
FF6D21H   FF6D7DH   00005DH   BYTE   INSEG    CODE           ?PR?LCD_SHOWSTR?SEEKFREE_18TFT
FF6D7EH   FF6DD6H   000059H   BYTE   INSEG    CODE           ?PR?ICM20602_SIMSPI_WR_BYTE?SEEKFREE_ICM20602
FF6DD7H   FF6E2FH   000059H   BYTE   INSEG    CODE           ?PR?IMU660RA_SIMSPI_WR_BYTE?SEEKFREE_IMU660RA
FF6E30H   FF6E88H   000059H   BYTE   INSEG    CODE           ?PR?IMU963RA_SIMSPI_WR_BYTE?SEEKFREE_IMU963RA
FF6E89H   FF6EDFH   000057H   BYTE   INSEG    CODE           ?PR?LCD_CLEAR?SEEKFREE_18TFT
FF6EE0H   FF6F34H   000055H   BYTE   INSEG    CODE           ?PR?LCD_WRITEDATA_16BIT_SIMSPI?SEEKFREE_18TFT
FF6F35H   FF6F89H   000055H   BYTE   INSEG    CODE           ?PR?IPS114_WRITEDATAI_16BIT_SIMSPI?SEEKFREE_IPS114_SPI
FF6F8AH   FF6FDDH   000054H   BYTE   INSEG    CODE           ?PR?KEYSTROKE_MENU_ONE?MENU
FF6FDEH   FF7031H   000054H   BYTE   INSEG    CODE           ?PR?HAVE_SUB_MENU?MENU
FF7032H   FF7084H   000053H   BYTE   INSEG    CODE           ?PR?DL1A_TIMEOUT_MCLKS_TO_MICROSECONDS?SEEKFREE_DL1A
FF7085H   FF70D5H   000051H   BYTE   INSEG    CODE           ?PR?DL1A_TIMEOUT_MICROSECONDS_TO_MCLKS?SEEKFREE_DL1A
FF70D6H   FF7126H   000051H   BYTE   INSEG    CODE           ?PR?ICM20602_SIMSPI_R_REG_BYTES?SEEKFREE_ICM20602
FF7127H   FF7174H   00004EH   BYTE   INSEG    CODE           ?PR?MAIN?MAIN
FF7175H   FF71C0H   00004CH   BYTE   INSEG    CODE           ?PR?LCD_WRITEINDEX_SIMSPI?SEEKFREE_18TFT
FF71C1H   FF720CH   00004CH   BYTE   INSEG    CODE           ?PR?LCD_WRITEDATA_SIMSPI?SEEKFREE_18TFT
FF720DH   FF7258H   00004CH   BYTE   INSEG    CODE           ?PR?IPS114_WRITEINDEX_SIMSPI?SEEKFREE_IPS114_SPI
FF7259H   FF72A4H   00004CH   BYTE   INSEG    CODE           ?PR?OLED_WRCMD?SEEKFREE_OLED
FF72A5H   FF72F0H   00004CH   BYTE   INSEG    CODE           ?PR?OLED_WRDAT?SEEKFREE_OLED
FF72F1H   FF733BH   00004BH   BYTE   INSEG    CODE           ?PR?IMU660RA_SIMSPI_R_REG_BYTES?SEEKFREE_IMU660RA
FF733CH   FF7384H   000049H   BYTE   INSEG    CODE           ?PR?DL1A_SEND_CH?SEEKFREE_DL1A
L251 LINKER/LOCATER V4.66.93.0                                                        07/31/2023  12:50:11  PAGE 9


FF7385H   FF73CDH   000049H   BYTE   INSEG    CODE           ?PR?DL1B_SEND_CH?SEEKFREE_DL1B
FF73CEH   FF7414H   000047H   BYTE   INSEG    CODE           ?PR?KEYSTROKE_MENU_THREE?MENU
FF7415H   FF745AH   000046H   BYTE   INSEG    CODE           ?PR?UART1_ISR?ISR
FF745BH   FF749CH   000042H   BYTE   INSEG    CODE           ?PR?DL1A_SIMIIC_WRITE_DATS?SEEKFREE_DL1A
FF749DH   FF74DDH   000041H   BYTE   INSEG    CODE           ?PR?DELAY_INIT?ZF_DELAY
FF74DEH   FF74F0H   000013H   BYTE   UNIT     CODE           ?C_C51STARTUP
FF74F1H   FF7519H   000029H   BYTE   UNIT     CODE           ?C_C51STARTUP?2
FF751AH   FF751CH   000003H   BYTE   UNIT     CODE           ?C_C51STARTUP?3
FF751DH   FF7556H   00003AH   BYTE   INSEG    CODE           ?PR?TM4_ISR?ISR
FF7557H   FF758CH   000036H   BYTE   INSEG    CODE           ?PR?OLED_SET_POS_SPI?SEEKFREE_OLED
FF758DH   FF75C1H   000035H   BYTE   INSEG    CODE           ?PR?DELAY_MS?ZF_DELAY
FF75C2H   FF75F6H   000035H   BYTE   INSEG    CODE           ?PR?OLED_SET_POS?SEEKFREE_OLED
FF75F7H   FF7623H   00002DH   BYTE   INSEG    CODE           ?PR?IMU963RA_SIMSPI_R_REG_BYTE?SEEKFREE_IMU963RA
FF7624H   FF764DH   00002AH   BYTE   INSEG    CODE           ?PR?LCD_WRITEDATA_16BIT?SEEKFREE_18TFT
FF764EH   FF7677H   00002AH   BYTE   INSEG    CODE           ?PR?DL1A_DECODE_TIMEOUT?SEEKFREE_DL1A
FF7678H   FF76A1H   00002AH   BYTE   INSEG    CODE           ?PR?IPS114_WRITEDATA_16BIT?SEEKFREE_IPS114_SPI
FF76A2H   FF76CAH   000029H   BYTE   INSEG    CODE           ?PR?IAP_ERASE_PAGE?ZF_EEPROM
FF76CBH   FF76F2H   000028H   BYTE   INSEG    CODE           ?PR?DL1A_SIMIIC_SENDACK?SEEKFREE_DL1A
FF76F3H   FF771AH   000028H   BYTE   INSEG    CODE           ?PR?DL1B_SIMIIC_SENDACK?SEEKFREE_DL1B
FF771BH   FF7742H   000028H   BYTE   INSEG    CODE           ?PR?MPU6050_SIMIIC_SENDACK?SEEKFREE_MPU6050
FF7743H   FF776AH   000028H   BYTE   INSEG    CODE           ?PR?EEPROM_FLASH?EEPROM
FF776BH   FF7791H   000027H   BYTE   INSEG    CODE           ?PR?ICM20602_SIMSPI_R_REG_BYTE?SEEKFREE_ICM20602
FF7792H   FF77B6H   000025H   BYTE   INSEG    CODE           ?PR?MEMCPY?_?MEMCPY
FF77B7H   FF77D9H   000023H   BYTE   INSEG    CODE           ?PR?IMU963RA_READ_ACC_GYRO_REGISTER?SEEKFREE_IMU963RA
FF77DAH   FF77FBH   000022H   BYTE   INSEG    CODE           ?PR?IMU660RA_READ_REGISTER?SEEKFREE_IMU660RA
FF77FCH   FF781CH   000021H   BYTE   INSEG    CODE           ?PR?DL1A_SCCB_WAITACK?SEEKFREE_DL1A
FF781DH   FF783DH   000021H   BYTE   INSEG    CODE           ?PR?DL1B_SCCB_WAITACK?SEEKFREE_DL1B
FF783EH   FF785EH   000021H   BYTE   INSEG    CODE           ?PR?IMU963RA_SIMSPI_W_REG_BYTE?SEEKFREE_IMU963RA
FF785FH   FF787CH   00001EH   BYTE   INSEG    CODE           ?PR?ICM20602_READ_REGISTER?SEEKFREE_ICM20602
FF787DH   FF789AH   00001EH   BYTE   INSEG    CODE           ?PR?UART2_ISR?ISR
FF789BH   FF78B8H   00001EH   BYTE   INSEG    CODE           ?PR?UART3_ISR?ISR
FF78B9H   FF78D5H   00001DH   BYTE   INSEG    CODE           ?PR?DL1B_SIMIIC_DELAY?SEEKFREE_DL1B
FF78D6H   FF78F2H   00001DH   BYTE   INSEG    CODE           ?PR?MPU6050_SIMIIC_DELAY?SEEKFREE_MPU6050
FF78F3H   FF790EH   00001CH   BYTE   INSEG    CODE           ?PR?KEYSTROKE_MENU_TWO_FIVE?MENU
FF790FH   FF792AH   00001CH   BYTE   INSEG    CODE           ?PR?KEYSTROKE_MENU_TWO_FOUR?MENU
FF792BH   FF7946H   00001CH   BYTE   INSEG    CODE           ?PR?KEYSTROKE_MENU_TWO_ONE?MENU
FF7947H   FF7962H   00001CH   BYTE   INSEG    CODE           ?PR?KEYSTROKE_MENU_TWO_SIX?MENU
FF7963H   FF797EH   00001CH   BYTE   INSEG    CODE           ?PR?KEYSTROKE_MENU_TWO_TWO?MENU
FF797FH   FF799AH   00001CH   BYTE   INSEG    CODE           ?PR?KEYSTROKE_MENU_TWO_THREE?MENU
FF799BH   FF79B4H   00001AH   BYTE   INSEG    CODE           ?PR?IAP_SET_TPS?ZF_EEPROM
FF79B5H   FF79CEH   00001AH   BYTE   INSEG    CODE           ?PR?BLUETOOTH_CH9141_UART_CALLBACK?SEEKFREE_BLUETOOTH_CH91
                                                             -41
FF79CFH   FF79E8H   00001AH   BYTE   INSEG    CODE           ?PR?IMU963RA_WRITE_ACC_GYRO_REGISTER?SEEKFREE_IMU963RA
FF79E9H   FF7A02H   00001AH   BYTE   INSEG    CODE           ?PR?WIRELESS_UART_CALLBACK?SEEKFREE_WIRELESS
FF7A03H   FF7A1CH   00001AH   BYTE   INSEG    CODE           ?PR?WIRELESS_CH573_CALLBACK?SEEKFREE_WIRELESS_CH573
FF7A1DH   FF7A36H   00001AH   BYTE   INSEG    CODE           ?PR?KEYSTROKE_MENU_TWO?MENU
FF7A37H   FF7A4CH   000016H   BYTE   INSEG    CODE           ?PR?DL1A_SIMIIC_STOP?SEEKFREE_DL1A
FF7A4DH   FF7A62H   000016H   BYTE   INSEG    CODE           ?PR?MPU6050_SIMIIC_STOP?SEEKFREE_MPU6050
FF7A63H   FF7A77H   000015H   BYTE   INSEG    CODE           ?PR?LCD_WRITEINDEX?SEEKFREE_18TFT
FF7A78H   FF7A8CH   000015H   BYTE   INSEG    CODE           ?PR?LCD_WRITEDATA?SEEKFREE_18TFT
FF7A8DH   FF7AA1H   000015H   BYTE   INSEG    CODE           ?PR?IPS114_WRITEINDEX?SEEKFREE_IPS114_SPI
FF7AA2H   FF7AB6H   000015H   BYTE   INSEG    CODE           ?PR?OLED_WRCMD_SPI?SEEKFREE_OLED
FF7AB7H   FF7ACBH   000015H   BYTE   INSEG    CODE           ?PR?OLED_WRDAT_SPI?SEEKFREE_OLED
FF7ACCH   FF7ADEH   000013H   BYTE   INSEG    CODE           ?PR?DL1A_SIMIIC_START?SEEKFREE_DL1A
FF7ADFH   FF7AF1H   000013H   BYTE   INSEG    CODE           ?PR?MPU6050_SIMIIC_START?SEEKFREE_MPU6050
FF7AF2H   FF7B04H   000013H   BYTE   INSEG    CODE           ?PR?USER_TIME_BACK_0?USER_TIME
FF7B05H   FF7B16H   000012H   BYTE   INSEG    CODE           ?PR?PUTCHAR?BOARD
FF7B17H   FF7B28H   000012H   BYTE   INSEG    CODE           ?PR?SPI_MOSI?ZF_SPI
FF7B29H   FF7B30H   000008H   BYTE   INSEG    CODE           ?PR?INT0_ISR?ISR
FF7B31H   FF7B38H   000008H   BYTE   INSEG    CODE           ?PR?INT2_ISR?ISR
FF7B39H   FF7B40H   000008H   BYTE   INSEG    CODE           ?PR?INT3_ISR?ISR
FF7B41H   FF7B48H   000008H   BYTE   INSEG    CODE           ?PR?INT4_ISR?ISR
FF7B49H   FF7B50H   000008H   BYTE   INSEG    CODE           ?PR?TM2_ISR?ISR
FF7B51H   FF7B58H   000008H   BYTE   INSEG    CODE           ?PR?TM3_ISR?ISR
FF7B59H   FF7CC0H   000168H   BYTE   UNIT     HCONST         ?HC?MENU
L251 LINKER/LOCATER V4.66.93.0                                                        07/31/2023  12:50:11  PAGE 10


FF7CC1H   FF7DE7H   000127H   BYTE   UNIT     HCONST         ?C_INITEDATA
FF7DE8H   FF7E3FH   000058H   BYTE   UNIT     HCONST         ?HC?ZF_PWM
FF7E40H   FF7E8AH   00004BH   BYTE   UNIT     HCONST         ?HC?SEEKFREE_IMU963RA
FF7E8BH   FF7EBEH   000034H   BYTE   UNIT     HCONST         ?HC?SEEKFREE_IMU660RA
FF7EBFH   FF7EF1H   000033H   BYTE   UNIT     HCONST         ?HC?SEEKFREE_ICM20602
FF7EF2H   FF7F07H   000016H   BYTE   UNIT     HCONST         ?HC?SEEKFREE_MPU6050
FF7F08H   FF7F1AH   000013H   BYTE   UNIT     HCONST         ?HC?SEEKFREE_DL1A
FF7F1BH   FF7F24H   00000AH   BYTE   UNIT     HCONST         ?HC?SEEKFREE_OLED
FF7F25H   FF7F2AH   000006H   BYTE   UNIT     HCONST         ?HC?SEEKFREE_18TFT
FF7F2BH   FF7F30H   000006H   BYTE   UNIT     HCONST         ?HC?SEEKFREE_IPS114_SPI

* * * * * * * * *   R E M O V E D     S E G M E N T S   * * * * * * * *
   *DEL*:           000004H   BYTE   INSEG    CODE           ?PR?DISABLEGLOBALIRQ?BOARD
   *DEL*:           000056H   BYTE   INSEG    CODE           ?PR?ADC_ONCE?ZF_ADC
   *DEL*:           0000B5H   BYTE   INSEG    CODE           ?PR?ADC_INIT?ZF_ADC
   *DEL*:           000033H   BYTE   INSEG    CODE           ?PR?DELAY_US?ZF_DELAY
   *DEL*:           000004H   BYTE   INSEG    CODE           ?PR?IAP_IDLE?ZF_EEPROM
   *DEL*:           000012H   BYTE   INSEG    CODE           ?PR?IAP_GET_CMD_STATE?ZF_EEPROM
   *DEL*:           000066H   BYTE   INSEG    CODE           ?PR?EXIT_INIT?ZF_EXTI
   *DEL*:           000095H   BYTE   INSEG    CODE           ?PR?GPIO_PULL_SET?ZF_GPIO
   *DEL*:           0000B9H   BYTE   INSEG    CODE           ?PR?NVIC_SETPRIORITY?ZF_NVIC
   *DEL*:           000118H   BYTE   INSEG    CODE           ?PR?PWM_DUTY?ZF_PWM
   *DEL*:           0003B8H   BYTE   INSEG    CODE           ?PR?PWM_SET_GPIO?ZF_PWM
   *DEL*:           0001ABH   BYTE   INSEG    CODE           ?PR?PWM_FREQ?ZF_PWM
   *DEL*:           0003DAH   BYTE   INSEG    CODE           ?PR?PWM_INIT?ZF_PWM
   *DEL*:           000026H   BYTE   INSEG    CODE           ?PR?SPI_CHANGE_MODE?ZF_SPI
   *DEL*:           0000CCH   BYTE   INSEG    CODE           ?PR?SPI_CHANGE_PIN?ZF_SPI
   *DEL*:           0000B4H   BYTE   INSEG    CODE           ?PR?CTIMER_COUNT_READ?ZF_TIM
   *DEL*:           000054H   BYTE   INSEG    CODE           ?PR?CTIMER_COUNT_INIT?ZF_TIM
   *DEL*:           00005DH   BYTE   INSEG    CODE           ?PR?CTIMER_COUNT_CLEAN?ZF_TIM
   *DEL*:           000039H   BYTE   INSEG    CODE           ?PR?UART_PUTBUFF?ZF_UART
   *DEL*:           00002BH   BYTE   INSEG    CODE           ?PR?UART_PUTSTR?ZF_UART
   *DEL*:           000183H   BYTE   INSEG    CODE           ?PR?FIFO_READ_BUFFER?ZF_FIFO
   *DEL*:           000043H   BYTE   INSEG    CODE           ?PR?FIFO_CLEAR?ZF_FIFO
   *DEL*:           000070H   BYTE   INSEG    CODE           ?PR?FIFO_END_OFFSET?ZF_FIFO
   *DEL*:           000025H   BYTE   INSEG    CODE           ?PR?FIFO_USED?ZF_FIFO
   *DEL*:           00006EH   BYTE   INSEG    CODE           ?PR?FIFO_INIT?ZF_FIFO
   *DEL*:           0000CDH   BYTE   INSEG    CODE           ?PR?LCD_SHOWUINT16?SEEKFREE_18TFT
   *DEL*:           0000CEH   BYTE   INSEG    CODE           ?PR?LCD_SHOWINT32_SIMSPI?SEEKFREE_18TFT
   *DEL*:           000119H   BYTE   INSEG    CODE           ?PR?LCD_SHOWINT16_SIMSPI?SEEKFREE_18TFT
   *DEL*:           000119H   BYTE   INSEG    CODE           ?PR?LCD_SHOWINT16?SEEKFREE_18TFT
   *DEL*:           000057H   BYTE   INSEG    CODE           ?PR?LCD_CLEAR_SIMSPI?SEEKFREE_18TFT
   *DEL*:           00005DH   BYTE   INSEG    CODE           ?PR?LCD_SHOWSTR_SIMSPI?SEEKFREE_18TFT
   *DEL*:           0001FBH   BYTE   INSEG    CODE           ?PR?LCD_INIT_SIMSPI?SEEKFREE_18TFT
   *DEL*:           0000EAH   BYTE   INSEG    CODE           ?PR?SHOWIMAGE?SEEKFREE_18TFT
   *DEL*:           0000A9H   BYTE   INSEG    CODE           ?PR?LCD_SHOWUINT8_SIMSPI?SEEKFREE_18TFT
   *DEL*:           0000A9H   BYTE   INSEG    CODE           ?PR?LCD_SHOWUINT8?SEEKFREE_18TFT
   *DEL*:           0000EBH   BYTE   INSEG    CODE           ?PR?LCD_SHOWINT8_SIMSPI?SEEKFREE_18TFT
   *DEL*:           0000EBH   BYTE   INSEG    CODE           ?PR?LCD_SHOWINT8?SEEKFREE_18TFT
   *DEL*:           000145H   BYTE   INSEG    CODE           ?PR?LCD_SHOWFLOAT_SIMSPI?SEEKFREE_18TFT
   *DEL*:           000023H   BYTE   INSEG    CODE           ?PR?LCD_DRAWPOINT_SIMSPI?SEEKFREE_18TFT
   *DEL*:           000145H   BYTE   INSEG    CODE           ?PR?LCD_SHOWFLOAT?SEEKFREE_18TFT
   *DEL*:           000023H   BYTE   INSEG    CODE           ?PR?LCD_DRAWPOINT?SEEKFREE_18TFT
   *DEL*:           0000BDH   BYTE   INSEG    CODE           ?PR?LCD_SHOWCHAR_SIMSPI?SEEKFREE_18TFT
   *DEL*:           0000CDH   BYTE   INSEG    CODE           ?PR?LCD_SHOWUINT16_SIMSPI?SEEKFREE_18TFT
   *DEL*:           00002EH   BYTE   INSEG    CODE           ?PR?BLUETOOTH_CH9141_READ_BUFF?SEEKFREE_BLUETOOTH_CH9141
   *DEL*:           0000CCH   BYTE   INSEG    CODE           ?PR?BLUETOOTH_CH9141_SEND_BUFF?SEEKFREE_BLUETOOTH_CH9141
   *DEL*:           00003CH   BYTE   INSEG    CODE           ?PR?BLUETOOTH_CH9141_INIT?SEEKFREE_BLUETOOTH_CH9141
   *DEL*:           00003EH   BYTE   INSEG    CODE           ?PR?DL1A_SET_SIGNAL_RATE_LIMIT?SEEKFREE_DL1A
   *DEL*:           000195H   BYTE   INSEG    CODE           ?PR?DL1A_GET_SPAD_INFO?SEEKFREE_DL1A
   *DEL*:           00006CH   BYTE   INSEG    CODE           ?PR?DL1A_GET_DISTANCE?SEEKFREE_DL1A
   *DEL*:           0000ABH   BYTE   INSEG    CODE           ?PR?DL1A_PERFORM_SINGLE_REF_CALIBRATION?SEEKFREE_DL1A
   *DEL*:           0000B6H   BYTE   INSEG    CODE           ?PR?DL1A_GET_MEASUREMENT_TIMING_BUDGET?SEEKFREE_DL1A
   *DEL*:           00003BH   BYTE   INSEG    CODE           ?PR?DL1A_SIMIIC_READ_REG?SEEKFREE_DL1A
   *DEL*:           000068H   BYTE   INSEG    CODE           ?PR?DL1A_SIMIIC_READ_REGS_1?SEEKFREE_DL1A
L251 LINKER/LOCATER V4.66.93.0                                                        07/31/2023  12:50:11  PAGE 11


   *DEL*:           000149H   BYTE   INSEG    CODE           ?PR?DL1A_SET_MEASUREMENT_TIMING_BUDGET?SEEKFREE_DL1A
   *DEL*:           00002AH   BYTE   INSEG    CODE           ?PR?DL1A_SIMIIC_WRITE_REG?SEEKFREE_DL1A
   *DEL*:           0006AEH   BYTE   INSEG    CODE           ?PR?DL1A_INIT?SEEKFREE_DL1A
   *DEL*:           000079H   BYTE   INSEG    CODE           ?PR?DL1B_IIC_TRANSFER_8BIT_ARRAY?SEEKFREE_DL1B
   *DEL*:           000133H   BYTE   INSEG    CODE           ?PR?DL1B_GET_DISTANCE?SEEKFREE_DL1B
   *DEL*:           000013H   BYTE   INSEG    CODE           ?PR?DL1B_SIMIIC_START?SEEKFREE_DL1B
   *DEL*:           000016H   BYTE   INSEG    CODE           ?PR?DL1B_SIMIIC_STOP?SEEKFREE_DL1B
   *DEL*:           000112H   BYTE   INSEG    CODE           ?PR?DL1B_INIT?SEEKFREE_DL1B
   *DEL*:           00008DH   BYTE   INSEG    CODE           ?PR?ICM20602_GYRO_TRANSITION?SEEKFREE_ICM20602
   *DEL*:           00001AH   BYTE   INSEG    CODE           ?PR?ICM20602_WRITE_REGISTER?SEEKFREE_ICM20602
   *DEL*:           00004EH   BYTE   INSEG    CODE           ?PR?ICM20602_SELF_CHECK?SEEKFREE_ICM20602
   *DEL*:           00001BH   BYTE   INSEG    CODE           ?PR?ICM20602_SIMSPI_W_REG_BYTE?SEEKFREE_ICM20602
   *DEL*:           0000C2H   BYTE   INSEG    CODE           ?PR?ICM20602_INIT?SEEKFREE_ICM20602
   *DEL*:           000050H   BYTE   INSEG    CODE           ?PR?ICM20602_GET_ACC?SEEKFREE_ICM20602
   *DEL*:           000089H   BYTE   INSEG    CODE           ?PR?ICM20602_ACC_TRANSITION?SEEKFREE_ICM20602
   *DEL*:           000026H   BYTE   INSEG    CODE           ?PR?ICM20602_READ_REGISTERS?SEEKFREE_ICM20602
   *DEL*:           000050H   BYTE   INSEG    CODE           ?PR?ICM20602_GET_GYRO?SEEKFREE_ICM20602
   *DEL*:           000050H   BYTE   INSEG    CODE           ?PR?IMU660RA_GET_GYRO?SEEKFREE_IMU660RA
   *DEL*:           000022H   BYTE   INSEG    CODE           ?PR?IMU660RA_WRITE_REGISTERS?SEEKFREE_IMU660RA
   *DEL*:           0000A8H   BYTE   INSEG    CODE           ?PR?IMU660RA_GYRO_TRANSITION?SEEKFREE_IMU660RA
   *DEL*:           00001AH   BYTE   INSEG    CODE           ?PR?IMU660RA_WRITE_REGISTER?SEEKFREE_IMU660RA
   *DEL*:           00004BH   BYTE   INSEG    CODE           ?PR?IMU660RA_SELF_CHECK?SEEKFREE_IMU660RA
   *DEL*:           00003EH   BYTE   INSEG    CODE           ?PR?IMU660RA_SIMSPI_W_REG_BYTES?SEEKFREE_IMU660RA
   *DEL*:           00001BH   BYTE   INSEG    CODE           ?PR?IMU660RA_SIMSPI_W_REG_BYTE?SEEKFREE_IMU660RA
   *DEL*:           0000AEH   BYTE   INSEG    CODE           ?PR?IMU660RA_INIT?SEEKFREE_IMU660RA
   *DEL*:           000050H   BYTE   INSEG    CODE           ?PR?IMU660RA_GET_ACC?SEEKFREE_IMU660RA
   *DEL*:           00007CH   BYTE   INSEG    CODE           ?PR?IMU660RA_ACC_TRANSITION?SEEKFREE_IMU660RA
   *DEL*:           000026H   BYTE   INSEG    CODE           ?PR?IMU660RA_READ_REGISTERS?SEEKFREE_IMU660RA
   *DEL*:           00008DH   BYTE   INSEG    CODE           ?PR?IMU963RA_ACC_TRANSITION?SEEKFREE_IMU963RA
   *DEL*:           000050H   BYTE   INSEG    CODE           ?PR?IMU963RA_GET_GYRO?SEEKFREE_IMU963RA
   *DEL*:           000051H   BYTE   INSEG    CODE           ?PR?IMU963RA_MAG_TRANSITION?SEEKFREE_IMU963RA
   *DEL*:           0000D2H   BYTE   INSEG    CODE           ?PR?IMU963RA_GYRO_TRANSITION?SEEKFREE_IMU963RA
   *DEL*:           00003AH   BYTE   INSEG    CODE           ?PR?IMU963RA_CONNECT_MAG?SEEKFREE_IMU963RA
   *DEL*:           000026H   BYTE   INSEG    CODE           ?PR?IMU963RA_READ_ACC_GYRO_REGISTERS?SEEKFREE_IMU963RA
   *DEL*:           00007FH   BYTE   INSEG    CODE           ?PR?IMU963RA_WRITE_MAG_REGISTER?SEEKFREE_IMU963RA
   *DEL*:           00004BH   BYTE   INSEG    CODE           ?PR?IMU963RA_SIMSPI_R_REG_BYTES?SEEKFREE_IMU963RA
   *DEL*:           000051H   BYTE   INSEG    CODE           ?PR?IMU963RA_MAG_SELF_CHECK?SEEKFREE_IMU963RA
   *DEL*:           00011DH   BYTE   INSEG    CODE           ?PR?IMU963RA_INIT?SEEKFREE_IMU963RA
   *DEL*:           00004EH   BYTE   INSEG    CODE           ?PR?IMU963RA_ACC_GYRO_SELF_CHECK?SEEKFREE_IMU963RA
   *DEL*:           000050H   BYTE   INSEG    CODE           ?PR?IMU963RA_GET_ACC?SEEKFREE_IMU963RA
   *DEL*:           00006BH   BYTE   INSEG    CODE           ?PR?IMU963RA_GET_MAG?SEEKFREE_IMU963RA
   *DEL*:           0000A9H   BYTE   INSEG    CODE           ?PR?IPS114_SHOWUINT8_SIMSPI?SEEKFREE_IPS114_SPI
   *DEL*:           0000A5H   BYTE   INSEG    CODE           ?PR?IPS114_SHOWUINT8?SEEKFREE_IPS114_SPI
   *DEL*:           0000EBH   BYTE   INSEG    CODE           ?PR?IPS114_SHOWINT8_SIMSPI?SEEKFREE_IPS114_SPI
   *DEL*:           0000E7H   BYTE   INSEG    CODE           ?PR?IPS114_SHOWINT8?SEEKFREE_IPS114_SPI
   *DEL*:           000145H   BYTE   INSEG    CODE           ?PR?IPS114_SHOWFLOAT_SIMSPI?SEEKFREE_IPS114_SPI
   *DEL*:           000023H   BYTE   INSEG    CODE           ?PR?IPS114_DRAWPOINT_SIMSPI?SEEKFREE_IPS114_SPI
   *DEL*:           000145H   BYTE   INSEG    CODE           ?PR?IPS114_SHOWFLOAT?SEEKFREE_IPS114_SPI
   *DEL*:           000023H   BYTE   INSEG    CODE           ?PR?IPS114_DRAWPOINT?SEEKFREE_IPS114_SPI
   *DEL*:           0000BDH   BYTE   INSEG    CODE           ?PR?IPS114_SHOWCHAR_SIMSPI?SEEKFREE_IPS114_SPI
   *DEL*:           0000BDH   BYTE   INSEG    CODE           ?PR?IPS114_SHOWCHAR?SEEKFREE_IPS114_SPI
   *DEL*:           0000CDH   BYTE   INSEG    CODE           ?PR?IPS114_SHOWUINT16_SIMSPI?SEEKFREE_IPS114_SPI
   *DEL*:           0000CDH   BYTE   INSEG    CODE           ?PR?IPS114_SHOWUINT16?SEEKFREE_IPS114_SPI
   *DEL*:           0000CEH   BYTE   INSEG    CODE           ?PR?IPS114_SHOWINT32_SIMSPI?SEEKFREE_IPS114_SPI
   *DEL*:           000119H   BYTE   INSEG    CODE           ?PR?IPS114_SHOWINT16_SIMSPI?SEEKFREE_IPS114_SPI
   *DEL*:           0000CEH   BYTE   INSEG    CODE           ?PR?IPS114_SHOWINT32?SEEKFREE_IPS114_SPI
   *DEL*:           000115H   BYTE   INSEG    CODE           ?PR?IPS114_SHOWINT16?SEEKFREE_IPS114_SPI
   *DEL*:           00005FH   BYTE   INSEG    CODE           ?PR?IPS114_CLEAR_SIMSPI?SEEKFREE_IPS114_SPI
   *DEL*:           00005FH   BYTE   INSEG    CODE           ?PR?IPS114_CLEAR?SEEKFREE_IPS114_SPI
   *DEL*:           00005DH   BYTE   INSEG    CODE           ?PR?IPS114_SHOWSTR_SIMSPI?SEEKFREE_IPS114_SPI
   *DEL*:           00005DH   BYTE   INSEG    CODE           ?PR?IPS114_SHOWSTR?SEEKFREE_IPS114_SPI
   *DEL*:           00004CH   BYTE   INSEG    CODE           ?PR?IPS114_WRITEDATA_SIMSPI?SEEKFREE_IPS114_SPI
   *DEL*:           000015H   BYTE   INSEG    CODE           ?PR?IPS114_WRITEDATA?SEEKFREE_IPS114_SPI
   *DEL*:           000054H   BYTE   INSEG    CODE           ?PR?IPS114_SET_REGION_SIMSPI?SEEKFREE_IPS114_SPI
   *DEL*:           000152H   BYTE   INSEG    CODE           ?PR?IPS114_INIT_SIMSPI?SEEKFREE_IPS114_SPI
L251 LINKER/LOCATER V4.66.93.0                                                        07/31/2023  12:50:11  PAGE 12


   *DEL*:           000054H   BYTE   INSEG    CODE           ?PR?IPS114_SET_REGION?SEEKFREE_IPS114_SPI
   *DEL*:           000172H   BYTE   INSEG    CODE           ?PR?IPS114_INIT?SEEKFREE_IPS114_SPI
   *DEL*:           00006CH   BYTE   INSEG    CODE           ?PR?MPU6050_SIMIIC_READ_REGS?SEEKFREE_MPU6050
   *DEL*:           00003BH   BYTE   INSEG    CODE           ?PR?MPU6050_SIMIIC_READ_REG?SEEKFREE_MPU6050
   *DEL*:           00002AH   BYTE   INSEG    CODE           ?PR?MPU6050_SIMIIC_WRITE_REG?SEEKFREE_MPU6050
   *DEL*:           000060H   BYTE   INSEG    CODE           ?PR?MPU6050_INIT?SEEKFREE_MPU6050
   *DEL*:           000033H   BYTE   INSEG    CODE           ?PR?MPU6050_SELF1_CHECK?SEEKFREE_MPU6050
   *DEL*:           00006AH   BYTE   INSEG    CODE           ?PR?MPU6050_READ_CH?SEEKFREE_MPU6050
   *DEL*:           000049H   BYTE   INSEG    CODE           ?PR?MPU6050_SEND_CH?SEEKFREE_MPU6050
   *DEL*:           000052H   BYTE   INSEG    CODE           ?PR?MPU6050_GET_GYRO?SEEKFREE_MPU6050
   *DEL*:           000021H   BYTE   INSEG    CODE           ?PR?MPU6050_SCCB_WAITACK?SEEKFREE_MPU6050
   *DEL*:           000052H   BYTE   INSEG    CODE           ?PR?MPU6050_GET_ACCDATA?SEEKFREE_MPU6050
   *DEL*:           000047H   BYTE   INSEG    CODE           ?PR?OLED_PUTPIXEL?SEEKFREE_OLED
   *DEL*:           00006FH   BYTE   INSEG    CODE           ?PR?OLED_HEXASCII_SPI?SEEKFREE_OLED
   *DEL*:           00044DH   BYTE   INSEG    CODE           ?PR?OLED_DIS_BMP_SPI?SEEKFREE_OLED
   *DEL*:           000145H   BYTE   INSEG    CODE           ?PR?OLED_PRINTF_FLOAT?SEEKFREE_OLED
   *DEL*:           000121H   BYTE   INSEG    CODE           ?PR?OLED_P8X16STR_SPI?SEEKFREE_OLED
   *DEL*:           000041H   BYTE   INSEG    CODE           ?PR?OLED_CLRPIXEL_SPI?SEEKFREE_OLED
   *DEL*:           0000C0H   BYTE   INSEG    CODE           ?PR?OLED_PRINT_CHINESE_SPI?SEEKFREE_OLED
   *DEL*:           00005DH   BYTE   INSEG    CODE           ?PR?OLED_FILL?SEEKFREE_OLED
   *DEL*:           0000CEH   BYTE   INSEG    CODE           ?PR?OLED_PRINTF_INT32?SEEKFREE_OLED
   *DEL*:           000027H   BYTE   INSEG    CODE           ?PR?OLED_UINT16?SEEKFREE_OLED
   *DEL*:           000048H   BYTE   INSEG    CODE           ?PR?OLED_PUTPIXEL_SPI?SEEKFREE_OLED
   *DEL*:           0000D1H   BYTE   INSEG    CODE           ?PR?OLED_P6X8STR?SEEKFREE_OLED
   *DEL*:           000073H   BYTE   INSEG    CODE           ?PR?OLED_INT16?SEEKFREE_OLED
   *DEL*:           0000A8H   BYTE   INSEG    CODE           ?PR?OLED_INIT?SEEKFREE_OLED
   *DEL*:           000145H   BYTE   INSEG    CODE           ?PR?OLED_PRINTF_FLOAT_SPI?SEEKFREE_OLED
   *DEL*:           00006FH   BYTE   INSEG    CODE           ?PR?OLED_HEXASCII?SEEKFREE_OLED
   *DEL*:           00005DH   BYTE   INSEG    CODE           ?PR?OLED_FILL_SPI?SEEKFREE_OLED
   *DEL*:           0000CEH   BYTE   INSEG    CODE           ?PR?OLED_PRINTF_INT32_SPI?SEEKFREE_OLED
   *DEL*:           000027H   BYTE   INSEG    CODE           ?PR?OLED_UINT16_SPI?SEEKFREE_OLED
   *DEL*:           0000D1H   BYTE   INSEG    CODE           ?PR?OLED_P6X8STR_SPI?SEEKFREE_OLED
   *DEL*:           000073H   BYTE   INSEG    CODE           ?PR?OLED_INT16_SPI?SEEKFREE_OLED
   *DEL*:           00046AH   BYTE   INSEG    CODE           ?PR?OLED_DIS_BMP?SEEKFREE_OLED
   *DEL*:           0000C5H   BYTE   INSEG    CODE           ?PR?OLED_INIT_SPI?SEEKFREE_OLED
   *DEL*:           000121H   BYTE   INSEG    CODE           ?PR?OLED_P8X16STR?SEEKFREE_OLED
   *DEL*:           000040H   BYTE   INSEG    CODE           ?PR?OLED_CLRPIXEL?SEEKFREE_OLED
   *DEL*:           0000C0H   BYTE   INSEG    CODE           ?PR?OLED_PRINT_CHINESE?SEEKFREE_OLED
   *DEL*:           00009AH   BYTE   INSEG    CODE           ?PR?CRC_CHECK?SEEKFREE_VIRSCO
   *DEL*:           0000DCH   BYTE   INSEG    CODE           ?PR?DATA_CONVERSION?SEEKFREE_VIRSCO
   *DEL*:           00002EH   BYTE   INSEG    CODE           ?PR?WIRELESS_UART_READ_BUFF?SEEKFREE_WIRELESS
   *DEL*:           000073H   BYTE   INSEG    CODE           ?PR?WIRELESS_UART_SEND_BUFF?SEEKFREE_WIRELESS
   *DEL*:           00003EH   BYTE   INSEG    CODE           ?PR?WIRELESS_UART_INIT?SEEKFREE_WIRELESS
   *DEL*:           00002EH   BYTE   INSEG    CODE           ?PR?WIRELESS_CH573_READ_BUFF?SEEKFREE_WIRELESS_CH573
   *DEL*:           000073H   BYTE   INSEG    CODE           ?PR?WIRELESS_CH573_SEND_BUFF?SEEKFREE_WIRELESS_CH573
   *DEL*:           00003EH   BYTE   INSEG    CODE           ?PR?WIRELESS_CH573_INIT?SEEKFREE_WIRELESS_CH573
   *DEL*:           0000B3H   BYTE   INSEG    CODE           ?PR?KEYSTROKE_FLOAT?MENU
   *DEL*:           000055H   BYTE   INSEG    CODE           ?PR?KEYSTROKE_SPECIAL_VALUE?MENU
   *DEL*:           000062H   BYTE   INSEG    CODE           ?PR?READ_FLOAT?EEPROM
   *DEL*:           000070H   BYTE   INSEG    CODE           ?PR?SAVE_FLOAT?EEPROM
   *DEL*:           000077H   BYTE   INSEG    CODE           ?PR?RTCI_SET?RTC
   *DEL*:           000028H   BYTE   UNIT     EDATA          ?ED?PRINTF
   *DEL*:           00001AH   BYTE   INSEG    CODE           ?PR?MEMSET?_?MEMSET



OVERLAY MAP OF MODULE:   .\Out_File\SEEKFREE (board)


FUNCTION/MODULE                                BIT_GROUP   DATA_GROUP 
--> CALLED FUNCTION/MODULE                    START  STOP  START  STOP
======================================================================
UART1_Isr/isr                                 ----- -----  ----- -----

*** NEW ROOT ********************************
L251 LINKER/LOCATER V4.66.93.0                                                        07/31/2023  12:50:11  PAGE 13



UART2_Isr/isr                                 ----- -----  ----- -----

*** NEW ROOT ********************************

UART3_Isr/isr                                 ----- -----  ----- -----

*** NEW ROOT ********************************

UART4_Isr/isr                                 ----- -----  ----- -----
  +--> wireless_uart_callback/SEEKFREE_WIRELESS
  +--> bluetooth_ch9141_uart_callback/SEEKFREE_BLUETOOTH_CH9141
  +--> wireless_ch573_callback/SEEKFREE_WIRELESS_CH573

wireless_uart_callback/SEEKFREE_WIRELESS      ----- -----  ----- -----
  +--> fifo_write_buffer/zf_fifo

fifo_write_buffer/zf_fifo                     ----- -----  ----- -----
  +--> memcpy?_/memcpy
  +--> fifo_head_offset/zf_fifo

memcpy?_/memcpy                               ----- -----  ----- -----

fifo_head_offset/zf_fifo                      ----- -----  ----- -----

bluetooth_ch9141_uart_callback/SEEKFREE_+     ----- -----  ----- -----
... BLUETOOTH_CH9141
  +--> fifo_write_buffer/zf_fifo

wireless_ch573_callback/SEEKFREE_WIRELES+     ----- -----  ----- -----
... S_CH573
  +--> fifo_write_buffer/zf_fifo

*** NEW ROOT ********************************

INT0_Isr/isr                                  ----- -----  ----- -----

*** NEW ROOT ********************************

INT1_Isr/isr                                  ----- -----  ----- -----

*** NEW ROOT ********************************

INT2_Isr/isr                                  ----- -----  ----- -----

*** NEW ROOT ********************************

INT3_Isr/isr                                  ----- -----  ----- -----

*** NEW ROOT ********************************

INT4_Isr/isr                                  ----- -----  ----- -----

*** NEW ROOT ********************************

TM0_Isr/isr                                   ----- -----  ----- -----

*** NEW ROOT ********************************

TM1_Isr/isr                                   ----- -----  ----- -----

*** NEW ROOT ********************************

TM2_Isr/isr                                   ----- -----  ----- -----

L251 LINKER/LOCATER V4.66.93.0                                                        07/31/2023  12:50:11  PAGE 14


*** NEW ROOT ********************************

TM3_Isr/isr                                   ----- -----  ----- -----

*** NEW ROOT ********************************

TM4_Isr/isr                                   ----- -----  ----- -----
  +--> User_Time_Sync_RTC/user_time
  +--> Timer_Finish/user_time

User_Time_Sync_RTC/user_time                  ----- -----  ----- -----

Timer_Finish/user_time                        ----- -----  ----- -----
  +--> delay_ms/zf_delay
  +--> User_Time_Back_0/user_time

delay_ms/zf_delay                             ----- -----  ----- -----

User_Time_Back_0/user_time                    ----- -----  ----- -----

*** NEW ROOT ********************************

RTC_Isr/rtc                                   ----- -----  ----- -----
  +--> User_Time_Sync_RTC/user_time

*** NEW ROOT ********************************

?C_C51STARTUP                                 ----- -----  ----- -----

*** NEW ROOT ********************************

?C_C51STARTUP?3                               ----- -----  ----- -----
  +--> main/main

main/main                                     ----- -----  ----- -----
  +--> board_init/board
  +--> gpio_mode/zf_gpio
  +--> lcd_init/SEEKFREE_18TFT
  +--> delay_ms/zf_delay
  +--> eeprom_init/eeprom
  +--> RTC_Init/rtc
  +--> RTC_Set/rtc
  +--> pit_timer_ms/zf_tim
  +--> Keystroke_Scan/key
  +--> Keystroke_Menu/menu

board_init/board                              ----- -----  ----- -----
  +--> set_clk/board
  +--> delay_init/zf_delay
  +--> uart_init/zf_uart
  +--> EnableGlobalIRQ/board

set_clk/board                                 ----- -----  ----- -----

delay_init/zf_delay                           ----- -----  ----- -----
  +--> ?C?SLDIV/?C?SLDIV

?C?SLDIV/?C?SLDIV                             ----- -----  ----- -----
  +--> ?C?ULIDIV/?C?ULDIV

?C?ULIDIV/?C?ULDIV                            ----- -----  ----- -----

uart_init/zf_uart                             ----- -----  ----- -----
  +--> ?C?ULIDIV/?C?ULDIV

L251 LINKER/LOCATER V4.66.93.0                                                        07/31/2023  12:50:11  PAGE 15


EnableGlobalIRQ/board                         ----- -----  ----- -----

gpio_mode/zf_gpio                             ----- -----  ----- -----

lcd_init/SEEKFREE_18TFT                       ----- -----  ----- -----
  +--> spi_init/zf_spi
  +--> delay_ms/zf_delay
  +--> lcd_writeIndex/SEEKFREE_18TFT
  +--> lcd_writeData/SEEKFREE_18TFT
  +--> lcd_clear/SEEKFREE_18TFT

spi_init/zf_spi                               ----- -----  ----- -----
  +--> gpio_mode/zf_gpio

lcd_writeIndex/SEEKFREE_18TFT                 ----- -----  ----- -----
  +--> spi_mosi/zf_spi

spi_mosi/zf_spi                               ----- -----  ----- -----

lcd_writeData/SEEKFREE_18TFT                  ----- -----  ----- -----
  +--> spi_mosi/zf_spi

lcd_clear/SEEKFREE_18TFT                      ----- -----  ----- -----
  +--> lcd_set_region/SEEKFREE_18TFT
  +--> lcd_writedata_16bit/SEEKFREE_18TFT

lcd_set_region/SEEKFREE_18TFT                 ----- -----  ----- -----
  +--> lcd_writeIndex/SEEKFREE_18TFT
  +--> lcd_writeData/SEEKFREE_18TFT

lcd_writedata_16bit/SEEKFREE_18TFT            ----- -----  ----- -----
  +--> spi_mosi/zf_spi

eeprom_init/eeprom                            ----- -----  ----- -----
  +--> iap_init/zf_eeprom
  +--> iap_read_bytes/zf_eeprom
  +--> read_int/eeprom
  +--> save_int/eeprom

iap_init/zf_eeprom                            ----- -----  ----- -----
  +--> iap_set_tps/zf_eeprom

iap_set_tps/zf_eeprom                         ----- -----  ----- -----
  +--> ?C?SLDIV/?C?SLDIV

iap_read_bytes/zf_eeprom                      ----- -----  ----- -----
  +--> eeprom_trig/zf_eeprom

eeprom_trig/zf_eeprom                         ----- -----  ----- -----

read_int/eeprom                               ----- -----  ----- -----

save_int/eeprom                               ----- -----  ----- -----
  +--> extern_iap_write_bytes/zf_eeprom

extern_iap_write_bytes/zf_eeprom              ----- -----  ----- -----
  +--> iap_read_bytes/zf_eeprom
  +--> iap_erase_page/zf_eeprom
  +--> iap_write_bytes/zf_eeprom

iap_erase_page/zf_eeprom                      ----- -----  ----- -----
  +--> eeprom_trig/zf_eeprom
  +--> delay_ms/zf_delay

iap_write_bytes/zf_eeprom                     ----- -----  ----- -----
L251 LINKER/LOCATER V4.66.93.0                                                        07/31/2023  12:50:11  PAGE 16


  +--> eeprom_trig/zf_eeprom

RTC_Init/rtc                                  ----- -----  ----- -----

RTC_Set/rtc                                   ----- -----  ----- -----

pit_timer_ms/zf_tim                           ----- -----  ----- -----
  +--> ?C?SLDIV/?C?SLDIV

Keystroke_Scan/key                            ----- -----  ----- -----
  +--> delay_ms/zf_delay

Keystroke_Menu/menu                           ----- -----  ----- -----
  +--> Keystroke_Menu_HOME/menu
  +--> Keystroke_Menu_ONE/menu
  +--> Keystroke_Menu_ONE_One/menu
  +--> Keystroke_Menu_ONE_Two/menu
  +--> Keystroke_Menu_TWO/menu
  +--> Keystroke_Menu_TWO_One/menu
  +--> Keystroke_Menu_TWO_Two/menu
  +--> Keystroke_Menu_TWO_Three/menu
  +--> Keystroke_Menu_TWO_Four/menu
  +--> Keystroke_Menu_TWO_Five/menu
  +--> Keystroke_Menu_TWO_Six/menu
  +--> Keystroke_Menu_Three/menu

Keystroke_Menu_HOME/menu                      ----- -----  ----- -----
  +--> lcd_showstr/SEEKFREE_18TFT
  +--> Cursor/menu
  +--> have_sub_menu/menu
  +--> lcd_clear/SEEKFREE_18TFT
  +--> eeprom_flash/eeprom
  +--> delay_ms/zf_delay

lcd_showstr/SEEKFREE_18TFT                    ----- -----  ----- -----
  +--> lcd_showchar/SEEKFREE_18TFT

lcd_showchar/SEEKFREE_18TFT                   ----- -----  ----- -----
  +--> lcd_set_region/SEEKFREE_18TFT
  +--> lcd_writedata_16bit/SEEKFREE_18TFT

Cursor/menu                                   ----- -----  ----- -----
  +--> Keystroke_Scan/key
  +--> lcd_showstr/SEEKFREE_18TFT

have_sub_menu/menu                            ----- -----  ----- -----

eeprom_flash/eeprom                           ----- -----  ----- -----
  +--> save_int/eeprom

Keystroke_Menu_ONE/menu                       ----- -----  ----- -----
  +--> Menu_ONE_Display/menu
  +--> Keystroke_Scan/key
  +--> lcd_clear/SEEKFREE_18TFT
  +--> Menu_Next_Back/menu

Menu_ONE_Display/menu                         ----- -----  ----- -----
  +--> lcd_showstr/SEEKFREE_18TFT
  +--> lcd_showint32/SEEKFREE_18TFT

lcd_showint32/SEEKFREE_18TFT                  ----- -----  ----- -----
  +--> zf_sprintf/SEEKFREE_PRINTF
  +--> lcd_showstr/SEEKFREE_18TFT

zf_sprintf/SEEKFREE_PRINTF                    ----- -----  ----- -----
L251 LINKER/LOCATER V4.66.93.0                                                        07/31/2023  12:50:11  PAGE 17


  +--> number_conversion_ascii/SEEKFREE_PRINTF
  +--> printf_reverse_order/SEEKFREE_PRINTF
  +--> memcpy?_/memcpy

number_conversion_ascii/SEEKFREE_PRINTF       ----- -----  ----- -----
  +--> ?C?SLDIV/?C?SLDIV
  +--> ?C?ULIDIV/?C?ULDIV

printf_reverse_order/SEEKFREE_PRINTF          ----- -----  ----- -----

Menu_Next_Back/menu                           ----- -----  ----- -----
  +--> lcd_clear/SEEKFREE_18TFT
  +--> have_sub_menu/menu

Keystroke_Menu_ONE_One/menu                   ----- -----  ----- -----
  +--> lcd_showstr/SEEKFREE_18TFT
  +--> lcd_showint32/SEEKFREE_18TFT
  +--> Keystroke_Scan/key
  +--> lcd_clear/SEEKFREE_18TFT
  +--> Menu_Next_Back/menu
  +--> User_Time_Back_0/user_time

Keystroke_Menu_ONE_Two/menu                   ----- -----  ----- -----

Keystroke_Menu_TWO/menu                       ----- -----  ----- -----
  +--> Menu_TWO_Display/menu
  +--> Cursor/menu
  +--> eeprom_flash/eeprom
  +--> Menu_Next_Back/menu

Menu_TWO_Display/menu                         ----- -----  ----- -----
  +--> lcd_showstr/SEEKFREE_18TFT
  +--> lcd_showint32/SEEKFREE_18TFT

Keystroke_Menu_TWO_One/menu                   ----- -----  ----- -----
  +--> Menu_TWO_Display/menu
  +--> Keystroke_int/menu
  +--> Time_Input_Limit/user_time

Keystroke_int/menu                            ----- -----  ----- -----
  +--> Keystroke_Scan/key
  +--> lcd_clear/SEEKFREE_18TFT

Time_Input_Limit/user_time                    ----- -----  ----- -----

Keystroke_Menu_TWO_Two/menu                   ----- -----  ----- -----
  +--> Menu_TWO_Display/menu
  +--> Keystroke_int/menu
  +--> Time_Input_Limit/user_time

Keystroke_Menu_TWO_Three/menu                 ----- -----  ----- -----
  +--> Menu_TWO_Display/menu
  +--> Keystroke_int/menu
  +--> Time_Input_Limit/user_time

Keystroke_Menu_TWO_Four/menu                  ----- -----  ----- -----
  +--> Menu_TWO_Display/menu
  +--> Keystroke_int/menu
  +--> Time_Input_Limit/user_time

Keystroke_Menu_TWO_Five/menu                  ----- -----  ----- -----
  +--> Menu_TWO_Display/menu
  +--> Keystroke_int/menu
  +--> Time_Input_Limit/user_time

L251 LINKER/LOCATER V4.66.93.0                                                        07/31/2023  12:50:11  PAGE 18


Keystroke_Menu_TWO_Six/menu                   ----- -----  ----- -----
  +--> Menu_TWO_Display/menu
  +--> Keystroke_int/menu
  +--> Time_Input_Limit/user_time

Keystroke_Menu_Three/menu                     ----- -----  ----- -----
  +--> lcd_showstr/SEEKFREE_18TFT
  +--> User_Time_Back_0/user_time
  +--> delay_ms/zf_delay
  +--> lcd_clear/SEEKFREE_18TFT

*** NEW ROOT ********************************

?C_C51STARTUP?2                               ----- -----  ----- -----



PUBLIC SYMBOLS OF MODULE:  .\Out_File\SEEKFREE (board)


      VALUE       CLASS    TYPE      PUBLIC SYMBOL NAME
      =================================================
      00FF3197H   CODE     NEAR LAB  ?C?CASTF
      000000FFH   NUMBER   ---       ?C?CODESEG
      00FF3164H   CODE     NEAR LAB  ?C?FCASTC
      00FF315FH   CODE     NEAR LAB  ?C?FCASTI
      00FF315AH   CODE     NEAR LAB  ?C?FCASTL
      00FF2F3BH   CODE     ---       ?C?FPADD
      00FF3116H   CODE     ---       ?C?FPCMP
      00FF3114H   CODE     ---       ?C?FPCMP3
      00FF369BH   CODE     ---       ?C?FPCONVERT
      00FF3093H   CODE     ---       ?C?FPDIV
      00FF3200H   CODE     ---       ?C?FPGETOPN2
      00FF2FF3H   CODE     ---       ?C?FPMUL
      00FF323DH   CODE     ---       ?C?FPNANRESULT
      00FF3245H   CODE     ---       ?C?FPOVERFLOW
      00FF3219H   CODE     ---       ?C?FPRESULT
      00FF322FH   CODE     ---       ?C?FPRESULT2
      00FF3753H   CODE     ---       ?C?FPROUND
      00FF2F38H   CODE     ---       ?C?FPSUB
      00FF3242H   CODE     ---       ?C?FPUNDERFLOW
      00FF37C6H   CODE     ---       ?C?FTNPWR
      00FF74F1H   CODE     ---       ?C?INITEDATA
      00FF7DE6H   HCONST   WORD      ?C?INITEDATA_END
      00FF3840H   CODE     ---       ?C?LIMUL
      00FF382FH   CODE     ---       ?C?LMUL
      00FF327EH   CODE     ---       ?C?PRNFMT
      00FF37FDH   CODE     ---       ?C?SIDIV
      00FF389CH   CODE     NEAR LAB  ?C?SLDIV
      00FF0000H   CODE     ---       ?C?STARTUP
      00FF384BH   CODE     NEAR LAB  ?C?ULDIV
      00FF3849H   CODE     NEAR LAB  ?C?ULIDIV
      00000001H   NUMBER   ---       ?C?XDATASEG
      00FF0000H   CODE     ---       ?C_STARTUP
      00000805H   EDATA    BYTE      ?data_conversion?BYTE
      000007BDH   EDATA    BYTE      ?dl1b_iic_transfer_8bit_array?BYTE
      0000083BH   EDATA    BYTE      ?fifo_init?BYTE
      00000764H   EDATA    BYTE      ?fifo_read_buffer?BYTE
      000007ADH   EDATA    BYTE      ?fifo_write_buffer?BYTE
      0000096BH   EDATA    BYTE      ?iap_read_bytes?BYTE
      00000975H   EDATA    BYTE      ?iap_write_bytes?BYTE
      0000050AH   EDATA    BYTE      ?ips114_showfloat?BYTE
      000004DAH   EDATA    BYTE      ?ips114_showfloat_simspi?BYTE
      000004AAH   EDATA    BYTE      ?lcd_showfloat?BYTE
      0000047AH   EDATA    BYTE      ?lcd_showfloat_simspi?BYTE
L251 LINKER/LOCATER V4.66.93.0                                                        07/31/2023  12:50:11  PAGE 19


      00000750H   EDATA    BYTE      ?number_conversion_ascii?BYTE
      0000053AH   EDATA    BYTE      ?oled_printf_float?BYTE
      0000056AH   EDATA    BYTE      ?oled_printf_float_spi?BYTE
*DEL*:00000028H   EDATA    ---       ?printf?BYTE
      0000073CH   EDATA    BYTE      ?pwm_freq?BYTE
      00000728H   EDATA    BYTE      ?pwm_init?BYTE
      00000020H.2 BIT      BIT       ?RTC_Init?BIT
      00000020H.0 BIT      BIT       ?RTCI_Set?BIT
      00000B12H   EDATA    BYTE      ?spi_init?BYTE
      000007DBH   EDATA    BYTE      ?uart_init?BYTE
      00000344H   EDATA    BYTE      ?zf_sprintf?BYTE
*SFR* 000000BCH   DATA     BYTE      ADC_CONTR
*DEL*:00000000H   CODE     ---       adc_init
*DEL*:00000000H   CODE     ---       adc_once
*SFR* 000000BDH   DATA     BYTE      ADC_RES
*SFR* 000000BEH   DATA     BYTE      ADC_RESL
*SFR* 000000DEH   DATA     BYTE      ADCCFG
*SFR* 000000EFH   DATA     BYTE      AUXINTIF
*SFR* 0000008EH   DATA     BYTE      AUXR
*SFR* 00000097H   DATA     BYTE      AUXR2
*DEL*:00000000H   CODE     ---       bluetooth_ch9141_init
*DEL*:00000000H   CODE     ---       bluetooth_ch9141_read_buff
*DEL*:00000000H   CODE     ---       bluetooth_ch9141_send_buff
      00FF79B5H   CODE     ---       bluetooth_ch9141_uart_callback
      00FF6294H   CODE     ---       board_init
      00000726H   EDATA    INT       break_finish_flag
      00000713H   EDATA    INT       break_hour
      00000717H   EDATA    INT       break_min
      0000070FH   EDATA    INT       break_sec
      00000BF7H   EDATA    ---       busy
*SFR* 000000F1H   DATA     BYTE      CANICR
      000006F0H   EDATA    FLOAT     change_unit
*SFR* 000000EAH   DATA     BYTE      CKCON
*SFR* 000000E6H   DATA     BYTE      CMPCR1
*SFR* 000000E7H   DATA     BYTE      CMPCR2
*DEL*:00000000H   CODE     ---       CRC_CHECK
*DEL*:00000000H   CODE     ---       ctimer_count_clean
*DEL*:00000000H   CODE     ---       ctimer_count_init
*DEL*:00000000H   CODE     ---       ctimer_count_read
      00FF5FE1H   CODE     ---       Cursor
      000006F6H   EDATA    BYTE      CursorRow
*DEL*:00000000H   CODE     ---       data_conversion
      000002B7H   EDATA    ---       date_buff
      00FF749DH   CODE     ---       delay_init
      00FF758DH   CODE     ---       delay_ms
*DEL*:00000000H   CODE     ---       delay_us
*DEL*:00000000H   CODE     ---       DisableGlobalIRQ
      000006F7H   EDATA    INT       Display_Codename
      00000C77H   EDATA    WORD      dl1a_distance_mm
      00000C79H   EDATA    BYTE      dl1a_finsh_flag
*DEL*:00000000H   CODE     ---       dl1a_get_distance
*DEL*:00000000H   CODE     ---       dl1a_init
      00FF00A6H   CODE     ---       dl1b_default_configuration
      00000C4DH   EDATA    WORD      dl1b_distance_mm
      00000C4FH   EDATA    BYTE      dl1b_finsh_flag
*DEL*:00000000H   CODE     ---       dl1b_get_distance
*DEL*:00000000H   CODE     ---       dl1b_iic_transfer_8bit_array
*DEL*:00000000H   CODE     ---       dl1b_init
      00000C50H   EDATA    BYTE      dl1b_init_flag
*SFR* 000000A8H.7 DATA     BIT       EA
*SFR* 000000BAH.7 DATA     BIT       EAXFR
      00FF7743H   CODE     ---       eeprom_flash
      00FF609BH   CODE     ---       eeprom_init
      0000031BH   EDATA    BYTE      eeprom_init_time
      00FF006EH   CODE     ---       eeprom_trig
L251 LINKER/LOCATER V4.66.93.0                                                        07/31/2023  12:50:11  PAGE 20


      00FF0006H   CODE     ---       EnableGlobalIRQ
*SFR* 000000A8H.4 DATA     BIT       ES
*SFR* 000000A8H.1 DATA     BIT       ET0
*SFR* 000000A8H.3 DATA     BIT       ET1
*SFR* 000000A8H.0 DATA     BIT       EX0
*SFR* 000000A8H.2 DATA     BIT       EX1
*DEL*:00000000H   CODE     ---       exit_init
      00FF5E62H   CODE     ---       extern_iap_write_bytes
*SFR* 000000D0H.5 DATA     BIT       F0
*DEL*:00000000H   CODE     ---       fifo_clear
*DEL*:00000000H   CODE     ---       fifo_end_offset
      00FF6930H   CODE     ---       fifo_head_offset
*DEL*:00000000H   CODE     ---       fifo_init
*DEL*:00000000H   CODE     ---       fifo_read_buffer
*DEL*:00000000H   CODE     ---       fifo_used
      00FF5686H   CODE     ---       fifo_write_buffer
      00FF38D0H   CODE     ---       gpio_mode
*DEL*:00000000H   CODE     ---       gpio_pull_set
      00FF6FDEH   CODE     ---       have_sub_menu
*SFR* 000000F6H   DATA     BYTE      IAP_ADDRE
*SFR* 000000C3H   DATA     BYTE      IAP_ADDRH
*SFR* 000000C4H   DATA     BYTE      IAP_ADDRL
*SFR* 000000C5H   DATA     BYTE      IAP_CMD
*SFR* 000000C7H   DATA     BYTE      IAP_CONTR
*SFR* 000000C2H   DATA     BYTE      IAP_DATA
      00FF76A2H   CODE     ---       iap_erase_page
*DEL*:00000000H   CODE     ---       iap_get_cmd_state
*DEL*:00000000H   CODE     ---       iap_idle
      00FF0046H   CODE     ---       iap_init
      00FF6B9EH   CODE     ---       iap_read_bytes
      00FF799BH   CODE     ---       iap_set_tps
*SFR* 000000F5H   DATA     BYTE      IAP_TPS
*SFR* 000000C6H   DATA     BYTE      IAP_TRIG
      00FF6CC3H   CODE     ---       iap_write_bytes
*DEL*:00000000H   CODE     ---       icm20602_acc_transition
      000008A7H   EDATA    INT       icm20602_acc_x
      000008A9H   EDATA    INT       icm20602_acc_y
      000008ABH   EDATA    INT       icm20602_acc_z
*DEL*:00000000H   CODE     ---       icm20602_get_acc
*DEL*:00000000H   CODE     ---       icm20602_get_gyro
*DEL*:00000000H   CODE     ---       icm20602_gyro_transition
      000008ADH   EDATA    INT       icm20602_gyro_x
      000008AFH   EDATA    INT       icm20602_gyro_y
      000008B1H   EDATA    INT       icm20602_gyro_z
*DEL*:00000000H   CODE     ---       icm20602_init
*SFR* 000000A8H   DATA     BYTE      IE
*SFR* 000000AFH   DATA     BYTE      IE2
*DEL*:00000000H   CODE     ---       imu660ra_acc_transition
      000008B3H   EDATA    INT       imu660ra_acc_x
      000008B5H   EDATA    INT       imu660ra_acc_y
      000008B7H   EDATA    INT       imu660ra_acc_z
      00FF012DH   CODE     ---       imu660ra_config_file
*DEL*:00000000H   CODE     ---       imu660ra_get_acc
*DEL*:00000000H   CODE     ---       imu660ra_get_gyro
*DEL*:00000000H   CODE     ---       imu660ra_gyro_transition
      000008B9H   EDATA    INT       imu660ra_gyro_x
      000008BBH   EDATA    INT       imu660ra_gyro_y
      000008BDH   EDATA    INT       imu660ra_gyro_z
*DEL*:00000000H   CODE     ---       imu660ra_init
*DEL*:00000000H   CODE     ---       imu963ra_acc_transition
      00000777H   EDATA    INT       imu963ra_acc_x
      00000779H   EDATA    INT       imu963ra_acc_y
      0000077BH   EDATA    INT       imu963ra_acc_z
*DEL*:00000000H   CODE     ---       imu963ra_get_acc
*DEL*:00000000H   CODE     ---       imu963ra_get_gyro
L251 LINKER/LOCATER V4.66.93.0                                                        07/31/2023  12:50:11  PAGE 21


*DEL*:00000000H   CODE     ---       imu963ra_get_mag
*DEL*:00000000H   CODE     ---       imu963ra_gyro_transition
      00000783H   EDATA    INT       imu963ra_gyro_x
      00000785H   EDATA    INT       imu963ra_gyro_y
      00000787H   EDATA    INT       imu963ra_gyro_z
*DEL*:00000000H   CODE     ---       imu963ra_init
*DEL*:00000000H   CODE     ---       imu963ra_mag_transition
      0000077DH   EDATA    INT       imu963ra_mag_x
      0000077FH   EDATA    INT       imu963ra_mag_y
      00000781H   EDATA    INT       imu963ra_mag_z
      00FF7B29H   CODE     ---       INT0_Isr
      00FF000AH   CODE     ---       INT1_Isr
      00FF7B31H   CODE     ---       INT2_Isr
      00FF7B39H   CODE     ---       INT3_Isr
      00FF7B41H   CODE     ---       INT4_Isr
*SFR* 0000008FH   DATA     BYTE      INTCLKO
*SFR* 000000B8H   DATA     BYTE      IP
*SFR* 000000B5H   DATA     BYTE      IP2
*SFR* 000000B6H   DATA     BYTE      IP2H
*SFR* 000000DFH   DATA     BYTE      IP3
*SFR* 000000EEH   DATA     BYTE      IP3H
*SFR* 000000B7H   DATA     BYTE      IPH
*DEL*:00000000H   CODE     ---       ips114_clear
*DEL*:00000000H   CODE     ---       ips114_clear_simspi
*DEL*:00000000H   CODE     ---       ips114_drawpoint
*DEL*:00000000H   CODE     ---       ips114_drawpoint_simspi
*DEL*:00000000H   CODE     ---       ips114_init
*DEL*:00000000H   CODE     ---       ips114_init_simspi
*DEL*:00000000H   CODE     ---       ips114_set_region
*DEL*:00000000H   CODE     ---       ips114_set_region_simspi
*DEL*:00000000H   CODE     ---       ips114_showchar
*DEL*:00000000H   CODE     ---       ips114_showchar_simspi
*DEL*:00000000H   CODE     ---       ips114_showfloat
*DEL*:00000000H   CODE     ---       ips114_showfloat_simspi
*DEL*:00000000H   CODE     ---       ips114_showint16
*DEL*:00000000H   CODE     ---       ips114_showint16_simspi
*DEL*:00000000H   CODE     ---       ips114_showint32
*DEL*:00000000H   CODE     ---       ips114_showint32_simspi
*DEL*:00000000H   CODE     ---       ips114_showint8
*DEL*:00000000H   CODE     ---       ips114_showint8_simspi
*DEL*:00000000H   CODE     ---       ips114_showstr
*DEL*:00000000H   CODE     ---       ips114_showstr_simspi
*DEL*:00000000H   CODE     ---       ips114_showuint16
*DEL*:00000000H   CODE     ---       ips114_showuint16_simspi
*DEL*:00000000H   CODE     ---       ips114_showuint8
*DEL*:00000000H   CODE     ---       ips114_showuint8_simspi
*DEL*:00000000H   CODE     ---       ips114_writeData
      00FF7678H   CODE     ---       ips114_writedata_16bit
*DEL*:00000000H   CODE     ---       ips114_writeData_simspi
      00FF6F35H   CODE     ---       ips114_writeDatai_16bit_simspi
      00FF7A8DH   CODE     ---       ips114_writeIndex
      00FF720DH   CODE     ---       ips114_writeIndex_simspi
*SFR* 0000009DH   DATA     BYTE      IRCBAND
*SFR* 0000009FH   DATA     BYTE      IRTRIM
*SFR* 00000088H.0 DATA     BIT       IT0
*SFR* 00000088H.2 DATA     BIT       IT1
      0000081DH   EDATA    BYTE      key1_flag
      00000817H   EDATA    BYTE      key1_last_status
      00000813H   EDATA    BYTE      key1_status
      0000081EH   EDATA    BYTE      key2_flag
      00000818H   EDATA    BYTE      key2_last_status
      00000814H   EDATA    BYTE      key2_status
      0000081FH   EDATA    BYTE      key3_flag
      00000819H   EDATA    BYTE      key3_last_status
      00000815H   EDATA    BYTE      key3_status
L251 LINKER/LOCATER V4.66.93.0                                                        07/31/2023  12:50:11  PAGE 22


      00000820H   EDATA    BYTE      key4_flag
      0000081AH   EDATA    BYTE      key4_last_status
      00000816H   EDATA    BYTE      key4_status
*DEL*:00000000H   CODE     ---       Keystroke_float
      00FF5D96H   CODE     ---       Keystroke_int
      00FF61F3H   CODE     ---       Keystroke_Menu
      00FF59EEH   CODE     ---       Keystroke_Menu_HOME
      00FF6F8AH   CODE     ---       Keystroke_Menu_ONE
      00FF4CF6H   CODE     ---       Keystroke_Menu_ONE_One
      00FF0010H   CODE     ---       Keystroke_Menu_ONE_Two
      00FF73CEH   CODE     ---       Keystroke_Menu_Three
      00FF7A1DH   CODE     ---       Keystroke_Menu_TWO
      00FF78F3H   CODE     ---       Keystroke_Menu_TWO_Five
      00FF790FH   CODE     ---       Keystroke_Menu_TWO_Four
      00FF792BH   CODE     ---       Keystroke_Menu_TWO_One
      00FF7947H   CODE     ---       Keystroke_Menu_TWO_Six
      00FF797FH   CODE     ---       Keystroke_Menu_TWO_Three
      00FF7963H   CODE     ---       Keystroke_Menu_TWO_Two
      00FF554CH   CODE     ---       Keystroke_Scan
*DEL*:00000000H   CODE     ---       Keystroke_Special_Value
      000006F4H   EDATA    BYTE      KeystrokeLabel
      0000071DH   EDATA    INT       last_sec
      00FF6E89H   CODE     ---       lcd_clear
*DEL*:00000000H   CODE     ---       lcd_clear_simspi
*DEL*:00000000H   CODE     ---       lcd_drawpoint
*DEL*:00000000H   CODE     ---       lcd_drawpoint_simspi
      00FF4EFBH   CODE     ---       lcd_init
*DEL*:00000000H   CODE     ---       lcd_init_simspi
      00FF6B3AH   CODE     ---       lcd_set_region
      00FF6AD6H   CODE     ---       lcd_set_region_simspi
      00FF5F24H   CODE     ---       lcd_showchar
*DEL*:00000000H   CODE     ---       lcd_showchar_simspi
*DEL*:00000000H   CODE     ---       lcd_showfloat
*DEL*:00000000H   CODE     ---       lcd_showfloat_simspi
*DEL*:00000000H   CODE     ---       lcd_showint16
*DEL*:00000000H   CODE     ---       lcd_showint16_simspi
      00FF5CC8H   CODE     ---       lcd_showint32
*DEL*:00000000H   CODE     ---       lcd_showint32_simspi
*DEL*:00000000H   CODE     ---       lcd_showint8
*DEL*:00000000H   CODE     ---       lcd_showint8_simspi
      00FF6D21H   CODE     ---       lcd_showstr
*DEL*:00000000H   CODE     ---       lcd_showstr_simspi
*DEL*:00000000H   CODE     ---       lcd_showuint16
*DEL*:00000000H   CODE     ---       lcd_showuint16_simspi
*DEL*:00000000H   CODE     ---       lcd_showuint8
*DEL*:00000000H   CODE     ---       lcd_showuint8_simspi
      00FF7A78H   CODE     ---       lcd_writeData
      00FF7624H   CODE     ---       lcd_writedata_16bit
      00FF6EE0H   CODE     ---       lcd_writeData_16bit_simspi
      00FF71C1H   CODE     ---       lcd_writeData_simspi
      00FF7A63H   CODE     ---       lcd_writeIndex
      00FF7175H   CODE     ---       lcd_writeIndex_simspi
*SFR* 000000F9H   DATA     BYTE      LINICR
      00FF7127H   CODE     ---       main
      00FF7792H   CODE     ---       memcpy?_
*DEL*:00000000H   CODE     ---       memset?_
      000006F9H   EDATA    ---       menu_have_sub
      00FF6C62H   CODE     ---       Menu_Next_Back
      00FF53E7H   CODE     ---       Menu_ONE_Display
      00FF57BEH   CODE     ---       Menu_TWO_Display
      000006F5H   EDATA    BYTE      MenuNextFlag
      000008EFH   EDATA    INT       mpu6050_acc_x
      000008F1H   EDATA    INT       mpu6050_acc_y
      000008F3H   EDATA    INT       mpu6050_acc_z
*DEL*:00000000H   CODE     ---       mpu6050_get_accdata
L251 LINKER/LOCATER V4.66.93.0                                                        07/31/2023  12:50:11  PAGE 23


*DEL*:00000000H   CODE     ---       mpu6050_get_gyro
      000008F5H   EDATA    INT       mpu6050_gyro_x
      000008F7H   EDATA    INT       mpu6050_gyro_y
      000008F9H   EDATA    INT       mpu6050_gyro_z
*DEL*:00000000H   CODE     ---       mpu6050_init
*DEL*:00000000H   CODE     ---       mpu6050_simiic_read_reg
*DEL*:00000000H   CODE     ---       mpu6050_simiic_read_regs
      00FF58D7H   CODE     ---       number_conversion_ascii
*DEL*:00000000H   CODE     ---       NVIC_SetPriority
      00FF2D0DH   CODE     ---       oled_6x8
      00FF212DH   CODE     ---       oled_8x16
*DEL*:00000000H   CODE     ---       oled_clrpixel
*DEL*:00000000H   CODE     ---       oled_clrpixel_spi
*DEL*:00000000H   CODE     ---       oled_dis_bmp
*DEL*:00000000H   CODE     ---       oled_dis_bmp_spi
*DEL*:00000000H   CODE     ---       oled_fill
*DEL*:00000000H   CODE     ---       oled_fill_spi
*DEL*:00000000H   CODE     ---       oled_hexascii
*DEL*:00000000H   CODE     ---       oled_hexascii_spi
*DEL*:00000000H   CODE     ---       oled_init
*DEL*:00000000H   CODE     ---       oled_init_spi
*DEL*:00000000H   CODE     ---       oled_int16
*DEL*:00000000H   CODE     ---       oled_int16_spi
*DEL*:00000000H   CODE     ---       oled_p6x8str
*DEL*:00000000H   CODE     ---       oled_p6x8str_spi
*DEL*:00000000H   CODE     ---       oled_p8x16str
*DEL*:00000000H   CODE     ---       oled_p8x16str_spi
*DEL*:00000000H   CODE     ---       oled_print_chinese
*DEL*:00000000H   CODE     ---       oled_print_chinese_spi
*DEL*:00000000H   CODE     ---       oled_printf_float
*DEL*:00000000H   CODE     ---       oled_printf_float_spi
*DEL*:00000000H   CODE     ---       oled_printf_int32
*DEL*:00000000H   CODE     ---       oled_printf_int32_spi
*DEL*:00000000H   CODE     ---       oled_putpixel
*DEL*:00000000H   CODE     ---       oled_putpixel_spi
      00FF75C2H   CODE     ---       oled_set_pos
      00FF7557H   CODE     ---       oled_set_pos_spi
*DEL*:00000000H   CODE     ---       oled_uint16
*DEL*:00000000H   CODE     ---       oled_uint16_spi
      00FF7259H   CODE     ---       oled_wrcmd
      00FF7AA2H   CODE     ---       oled_wrcmd_spi
      00FF72A5H   CODE     ---       oled_wrdat
      00FF7AB7H   CODE     ---       oled_wrdat_spi
*SFR* 00000080H   DATA     BYTE      P0
*SFR* 00000080H.7 DATA     BIT       P07
*SFR* 00000094H   DATA     BYTE      P0M0
*SFR* 00000093H   DATA     BYTE      P0M1
*SFR* 00000090H   DATA     BYTE      P1
*SFR* 00000092H   DATA     BYTE      P1M0
*SFR* 00000091H   DATA     BYTE      P1M1
*SFR* 000000A0H   DATA     BYTE      P2
*SFR* 000000A0H.0 DATA     BIT       P20
*SFR* 000000A0H.1 DATA     BIT       P21
*SFR* 000000A0H.2 DATA     BIT       P22
*SFR* 000000A0H.3 DATA     BIT       P23
*SFR* 000000A0H.5 DATA     BIT       P25
*SFR* 000000A0H.7 DATA     BIT       P27
*SFR* 00000096H   DATA     BYTE      P2M0
*SFR* 00000095H   DATA     BYTE      P2M1
*SFR* 000000B0H   DATA     BYTE      P3
*SFR* 000000B2H   DATA     BYTE      P3M0
*SFR* 000000B1H   DATA     BYTE      P3M1
*SFR* 000000C0H   DATA     BYTE      P4
*SFR* 000000C0H.0 DATA     BIT       P40
*SFR* 000000C0H.1 DATA     BIT       P41
L251 LINKER/LOCATER V4.66.93.0                                                        07/31/2023  12:50:11  PAGE 24


*SFR* 000000C0H.2 DATA     BIT       P42
*SFR* 000000C0H.3 DATA     BIT       P43
*SFR* 000000C0H.7 DATA     BIT       P47
*SFR* 000000B4H   DATA     BYTE      P4M0
*SFR* 000000B3H   DATA     BYTE      P4M1
*SFR* 000000C8H   DATA     BYTE      P5
*SFR* 000000C8H.2 DATA     BIT       P52
*SFR* 000000CAH   DATA     BYTE      P5M0
*SFR* 000000C9H   DATA     BYTE      P5M1
*SFR* 000000E8H   DATA     BYTE      P6
*SFR* 000000E8H.3 DATA     BIT       P63
*SFR* 000000E8H.5 DATA     BIT       P65
*SFR* 000000E8H.7 DATA     BIT       P67
*SFR* 000000CCH   DATA     BYTE      P6M0
*SFR* 000000CBH   DATA     BYTE      P6M1
*SFR* 000000F8H   DATA     BYTE      P7
*SFR* 000000F8H.0 DATA     BIT       P70
*SFR* 000000F8H.1 DATA     BIT       P71
*SFR* 000000F8H.2 DATA     BIT       P72
*SFR* 000000F8H.3 DATA     BIT       P73
*SFR* 000000F8H.5 DATA     BIT       P75
*SFR* 000000F8H.6 DATA     BIT       P76
*SFR* 000000E2H   DATA     BYTE      P7M0
*SFR* 000000E1H   DATA     BYTE      P7M1
*SFR* 000000A2H   DATA     BYTE      P_SW1
*SFR* 000000BAH   DATA     BYTE      P_SW2
*SFR* 000000BBH   DATA     BYTE      P_SW3
*SFR* 00000087H   DATA     BYTE      PCON
      00FF5BE3H   CODE     ---       pit_timer_ms
      00FF31D4H   CODE     NEAR LAB  printf
      00FF632BH   CODE     ---       printf_reverse_order
*SFR* 000000D0H   DATA     BYTE      PSW
      00FF7B05H   CODE     ---       putchar
      00FF7E08H   HCONST   ---       PWM_ARR_ADDR
      00FF7E10H   HCONST   ---       PWM_CCER_ADDR
      00FF7E20H   HCONST   ---       PWM_CCMR_ADDR
      00FF7DE8H   HCONST   ---       PWM_CCR_ADDR
*DEL*:00000000H   CODE     ---       pwm_duty
*DEL*:00000000H   CODE     ---       pwm_freq
*DEL*:00000000H   CODE     ---       pwm_init
*DEL*:00000000H   CODE     ---       pwm_set_gpio
*DEL*:00000000H   CODE     ---       read_float
      00FF6C00H   CODE     ---       read_int
*SFR* 000000FFH   DATA     BYTE      RSTCFG
      00FF66F3H   CODE     ---       RTC_Init
      00FF50ECH   CODE     ---       RTC_Isr
      00FF614DH   CODE     ---       RTC_Set
*DEL*:00000000H   CODE     ---       RTCI_Set
*SFR* 0000009BH   DATA     BYTE      S2BUF
*SFR* 0000009AH   DATA     BYTE      S2CON
*SFR* 000000ADH   DATA     BYTE      S3BUF
*SFR* 000000ACH   DATA     BYTE      S3CON
*SFR* 000000FEH   DATA     BYTE      S4BUF
*SFR* 000000FDH   DATA     BYTE      S4CON
*DEL*:00000000H   CODE     ---       save_float
      00FF6854H   CODE     ---       save_int
*SFR* 00000099H   DATA     BYTE      SBUF
*SFR* 00000098H   DATA     BYTE      SCON
      00FF4AF0H   CODE     ---       set_clk
*DEL*:00000000H   CODE     ---       showimage
*SFR* 000000CEH   DATA     BYTE      SPCTL
*SFR* 000000CFH   DATA     BYTE      SPDAT
*DEL*:00000000H   CODE     ---       spi_change_mode
*DEL*:00000000H   CODE     ---       spi_change_pin
      00FF5AEEH   CODE     ---       spi_init
L251 LINKER/LOCATER V4.66.93.0                                                        07/31/2023  12:50:11  PAGE 25


      00FF7B17H   CODE     ---       spi_mosi
*SFR* 000000CDH   DATA     BYTE      SPSTAT
      0000081BH   EDATA    BYTE      sw1_status
      0000081CH   EDATA    BYTE      sw2_status
      00000C15H   EDATA    LONG      sys_clk
*SFR* 000000D6H   DATA     BYTE      T2H
*SFR* 000000D7H   DATA     BYTE      T2L
*SFR* 000000D4H   DATA     BYTE      T3H
*SFR* 000000D5H   DATA     BYTE      T3L
*SFR* 000000D2H   DATA     BYTE      T4H
*SFR* 000000D3H   DATA     BYTE      T4L
*SFR* 000000DDH   DATA     BYTE      T4T3M
      00000715H   EDATA    INT       target_hour
      00000719H   EDATA    INT       target_min
      00000711H   EDATA    INT       target_sec
*SFR* 00000088H   DATA     BYTE      TCON
      00FF271DH   CODE     ---       tft_ascii
*SFR* 0000008CH   DATA     BYTE      TH0
*SFR* 0000008DH   DATA     BYTE      TH1
      00FF656EH   CODE     ---       Time_Input_Limit
      0000071FH   EDATA    BYTE      time_mod
      00FF64E0H   CODE     ---       Timer_Finish
      0000070DH   EDATA    INT       timer_finish_flag
      0000071BH   EDATA    INT       timer_start_flag
*SFR* 0000008AH   DATA     BYTE      TL0
*SFR* 0000008BH   DATA     BYTE      TL1
      00FF000EH   CODE     ---       TM0_Isr
      00FF000FH   CODE     ---       TM1_Isr
      00FF7B49H   CODE     ---       TM2_Isr
      00FF7B51H   CODE     ---       TM3_Isr
      00FF751DH   CODE     ---       TM4_Isr
*SFR* 00000089H   DATA     BYTE      TMOD
*SFR* 00000088H.4 DATA     BIT       TR0
*SFR* 00000088H.6 DATA     BIT       TR1
      00FF7415H   CODE     ---       UART1_Isr
      00FF787DH   CODE     ---       UART2_Isr
      00FF789BH   CODE     ---       UART3_Isr
      00FF67E1H   CODE     ---       UART4_Isr
      00FF483EH   CODE     ---       uart_init
*DEL*:00000000H   CODE     ---       uart_putbuff
      00FF676CH   CODE     ---       uart_putchar
*DEL*:00000000H   CODE     ---       uart_putstr
*SFR* 000000F4H   DATA     BYTE      USBCON
      00000722H   EDATA    INT       user_hour
      00000724H   EDATA    INT       user_min
      00000720H   EDATA    INT       user_sec
      00FF7AF2H   CODE     ---       User_Time_Back_0
      00FF63C0H   CODE     ---       User_Time_Sync_RTC
      000009CFH   EDATA    ---       virtual_scope_data
*SFR* 000000A6H   DATA     BYTE      VRTRIM
*SFR* 000000C1H   DATA     BYTE      WDT_CONTR
      00FF7A03H   CODE     ---       wireless_ch573_callback
*DEL*:00000000H   CODE     ---       wireless_ch573_init
*DEL*:00000000H   CODE     ---       wireless_ch573_read_buff
*DEL*:00000000H   CODE     ---       wireless_ch573_send_buff
      00000CA7H   EDATA    INT       wireless_type
      00FF79E9H   CODE     ---       wireless_uart_callback
*DEL*:00000000H   CODE     ---       wireless_uart_init
*DEL*:00000000H   CODE     ---       wireless_uart_read_buff
*DEL*:00000000H   CODE     ---       wireless_uart_send_buff
*SFR* 000000E9H   DATA     BYTE      WTST
      00000C1DH   EDATA    WORD      zf_delay_ms
      00000C1FH   EDATA    WORD      zf_delay_us
      00FF41DDH   CODE     ---       zf_sprintf

L251 LINKER/LOCATER V4.66.93.0                                                        07/31/2023  12:50:11  PAGE 26




SYMBOL TABLE OF MODULE:  .\Out_File\SEEKFREE (board)

      VALUE       REP       CLASS    TYPE      SYMBOL NAME
      ====================================================
      ---         MODULE    ---      ---       board
      00FF0006H   PUBLIC    CODE     ---       EnableGlobalIRQ
      00FF6294H   PUBLIC    CODE     ---       board_init
      00FF4AF0H   PUBLIC    CODE     ---       set_clk
      00FF7B05H   PUBLIC    CODE     ---       putchar
      00000C15H   PUBLIC    EDATA    LONG      sys_clk
      00000094H   SFRSYM    DATA     BYTE      P0M0
      000000D0H   SFRSYM    DATA     BYTE      PSW
      000000BAH.7 SFRSYM    DATA     BIT       EAXFR
      0000009DH   SFRSYM    DATA     BYTE      IRCBAND
      00000097H   SFRSYM    DATA     BYTE      AUXR2
      000000EAH   SFRSYM    DATA     BYTE      CKCON
      000000EFH   SFRSYM    DATA     BYTE      AUXINTIF
      000000FDH   SFRSYM    DATA     BYTE      S4CON
      000000ACH   SFRSYM    DATA     BYTE      S3CON
      0000009AH   SFRSYM    DATA     BYTE      S2CON
      000000A6H   SFRSYM    DATA     BYTE      VRTRIM
      000000B7H   SFRSYM    DATA     BYTE      IPH
      000000CDH   SFRSYM    DATA     BYTE      SPSTAT
      000000DDH   SFRSYM    DATA     BYTE      T4T3M
      0000009FH   SFRSYM    DATA     BYTE      IRTRIM
      000000C1H   SFRSYM    DATA     BYTE      WDT_CONTR
      000000E9H   SFRSYM    DATA     BYTE      WTST
      000000DFH   SFRSYM    DATA     BYTE      IP3
      000000F4H   SFRSYM    DATA     BYTE      USBCON
      000000B5H   SFRSYM    DATA     BYTE      IP2
      000000FFH   SFRSYM    DATA     BYTE      RSTCFG
      000000F9H   SFRSYM    DATA     BYTE      LINICR
      0000008EH   SFRSYM    DATA     BYTE      AUXR
      000000AFH   SFRSYM    DATA     BYTE      IE2
      00000088H   SFRSYM    DATA     BYTE      TCON
      00000089H   SFRSYM    DATA     BYTE      TMOD
      00000098H   SFRSYM    DATA     BYTE      SCON
      000000F1H   SFRSYM    DATA     BYTE      CANICR
      00000087H   SFRSYM    DATA     BYTE      PCON
      000000BCH   SFRSYM    DATA     BYTE      ADC_CONTR
      000000E7H   SFRSYM    DATA     BYTE      CMPCR2
      000000E6H   SFRSYM    DATA     BYTE      CMPCR1
      000000DEH   SFRSYM    DATA     BYTE      ADCCFG
      000000B8H   SFRSYM    DATA     BYTE      IP
      0000008FH   SFRSYM    DATA     BYTE      INTCLKO
      000000EEH   SFRSYM    DATA     BYTE      IP3H
      000000B6H   SFRSYM    DATA     BYTE      IP2H
      000000A8H   SFRSYM    DATA     BYTE      IE
      000000BBH   SFRSYM    DATA     BYTE      P_SW3
      000000BAH   SFRSYM    DATA     BYTE      P_SW2
      000000A2H   SFRSYM    DATA     BYTE      P_SW1
      000000CEH   SFRSYM    DATA     BYTE      SPCTL
      000000F8H   SFRSYM    DATA     BYTE      P7
      000000A8H.7 SFRSYM    DATA     BIT       EA
      000000E1H   SFRSYM    DATA     BYTE      P7M1
      000000E8H   SFRSYM    DATA     BYTE      P6
      000000C8H   SFRSYM    DATA     BYTE      P5
      000000CBH   SFRSYM    DATA     BYTE      P6M1
      000000E2H   SFRSYM    DATA     BYTE      P7M0
      000000C0H   SFRSYM    DATA     BYTE      P4
      000000C9H   SFRSYM    DATA     BYTE      P5M1
      000000CCH   SFRSYM    DATA     BYTE      P6M0
      000000B0H   SFRSYM    DATA     BYTE      P3
L251 LINKER/LOCATER V4.66.93.0                                                        07/31/2023  12:50:11  PAGE 27


      000000B3H   SFRSYM    DATA     BYTE      P4M1
      000000CAH   SFRSYM    DATA     BYTE      P5M0
      000000A0H   SFRSYM    DATA     BYTE      P2
      000000B1H   SFRSYM    DATA     BYTE      P3M1
      000000B4H   SFRSYM    DATA     BYTE      P4M0
      00000090H   SFRSYM    DATA     BYTE      P1
      00000095H   SFRSYM    DATA     BYTE      P2M1
      000000B2H   SFRSYM    DATA     BYTE      P3M0
      00000080H   SFRSYM    DATA     BYTE      P0
      00000091H   SFRSYM    DATA     BYTE      P1M1
      00000096H   SFRSYM    DATA     BYTE      P2M0
      00000092H   SFRSYM    DATA     BYTE      P1M0
      00000093H   SFRSYM    DATA     BYTE      P0M1

      00FF4AF0H   BLOCK     CODE     ---       LVL=0
      00FF4AF0H   LINE      CODE     ---       #43
      00FF4AF0H   LINE      CODE     ---       #46
      00FF4AF3H   LINE      CODE     ---       #48
      00FF4B03H   LINE      CODE     ---       #51
      00FF4B10H   LINE      CODE     ---       #52
      00FF4B1DH   LINE      CODE     ---       #53
      00FF4B2AH   LINE      CODE     ---       #54
      00FF4B2EH   LINE      CODE     ---       #55
      00FF4B3AH   LINE      CODE     ---       #56
      00FF4B3DH   LINE      CODE     ---       #57
      00FF4B4DH   LINE      CODE     ---       #60
      00FF4B5AH   LINE      CODE     ---       #61
      00FF4B67H   LINE      CODE     ---       #62
      00FF4B74H   LINE      CODE     ---       #63
      00FF4B78H   LINE      CODE     ---       #64
      00FF4B84H   LINE      CODE     ---       #65
      00FF4B87H   LINE      CODE     ---       #66
      00FF4B97H   LINE      CODE     ---       #69
      00FF4BA4H   LINE      CODE     ---       #70
      00FF4BB1H   LINE      CODE     ---       #71
      00FF4BBEH   LINE      CODE     ---       #72
      00FF4BC2H   LINE      CODE     ---       #73
      00FF4BCEH   LINE      CODE     ---       #74
      00FF4BD1H   LINE      CODE     ---       #75
      00FF4BE1H   LINE      CODE     ---       #79
      00FF4BEEH   LINE      CODE     ---       #80
      00FF4BFBH   LINE      CODE     ---       #81
      00FF4C08H   LINE      CODE     ---       #82
      00FF4C0CH   LINE      CODE     ---       #83
      00FF4C18H   LINE      CODE     ---       #84
      00FF4C1BH   LINE      CODE     ---       #85
      00FF4C2BH   LINE      CODE     ---       #88
      00FF4C38H   LINE      CODE     ---       #89
      00FF4C45H   LINE      CODE     ---       #90
      00FF4C52H   LINE      CODE     ---       #91
      00FF4C56H   LINE      CODE     ---       #92
      00FF4C62H   LINE      CODE     ---       #93
      00FF4C65H   LINE      CODE     ---       #94
      00FF4C75H   LINE      CODE     ---       #97
      00FF4C82H   LINE      CODE     ---       #98
      00FF4C8FH   LINE      CODE     ---       #99
      00FF4C9CH   LINE      CODE     ---       #100
      00FF4CA0H   LINE      CODE     ---       #101
      00FF4CACH   LINE      CODE     ---       #102
      00FF4CAEH   LINE      CODE     ---       #105
      00FF4CBAH   LINE      CODE     ---       #107
      00FF4CC7H   LINE      CODE     ---       #108
      00FF4CD4H   LINE      CODE     ---       #109
      00FF4CE1H   LINE      CODE     ---       #110
      00FF4CE5H   LINE      CODE     ---       #111
L251 LINKER/LOCATER V4.66.93.0                                                        07/31/2023  12:50:11  PAGE 28


      00FF4CF1H   LINE      CODE     ---       #112
      00FF4CF1H   LINE      CODE     ---       #114
      00FF4CF5H   LINE      CODE     ---       #115
      ---         BLOCKEND  ---      ---       LVL=0

      00FF6294H   BLOCK     CODE     ---       LVL=0
      00FF6294H   LINE      CODE     ---       #121
      00FF6294H   LINE      CODE     ---       #123
      00FF6298H   LINE      CODE     ---       #124
      00FF629BH   LINE      CODE     ---       #125
      00FF629EH   LINE      CODE     ---       #126
      00FF62A1H   LINE      CODE     ---       #127
      00FF62A5H   LINE      CODE     ---       #137
      00FF62ACH   LINE      CODE     ---       #143
      00FF62AFH   LINE      CODE     ---       #145
      00FF62B2H   LINE      CODE     ---       #146
      00FF62B5H   LINE      CODE     ---       #147
      00FF62C1H   LINE      CODE     ---       #149
      00FF62C4H   LINE      CODE     ---       #150
      00FF62C7H   LINE      CODE     ---       #151
      00FF62CAH   LINE      CODE     ---       #152
      00FF62CDH   LINE      CODE     ---       #153
      00FF62D0H   LINE      CODE     ---       #154
      00FF62D3H   LINE      CODE     ---       #155
      00FF62D6H   LINE      CODE     ---       #156
      00FF62D9H   LINE      CODE     ---       #157
      00FF62DCH   LINE      CODE     ---       #158
      00FF62DFH   LINE      CODE     ---       #159
      00FF62E2H   LINE      CODE     ---       #160
      00FF62E5H   LINE      CODE     ---       #161
      00FF62E8H   LINE      CODE     ---       #162
      00FF62EBH   LINE      CODE     ---       #163
      00FF62EEH   LINE      CODE     ---       #164
      00FF62F1H   LINE      CODE     ---       #166
      00FF62F4H   LINE      CODE     ---       #167
      00FF62F7H   LINE      CODE     ---       #168
      00FF62FAH   LINE      CODE     ---       #169
      00FF62FDH   LINE      CODE     ---       #170
      00FF6300H   LINE      CODE     ---       #171
      00FF6303H   LINE      CODE     ---       #172
      00FF6306H   LINE      CODE     ---       #173
      00FF6309H   LINE      CODE     ---       #174
      00FF630CH   LINE      CODE     ---       #176
      00FF6327H   LINE      CODE     ---       #177
      00FF632AH   LINE      CODE     ---       #178
      ---         BLOCKEND  ---      ---       LVL=0

      00FF7B05H   BLOCK     CODE     ---       LVL=0
      00000CEBH   SYMBOL    EDATA    CHAR      c
      00FF7B05H   LINE      CODE     ---       #183
      00FF7B09H   LINE      CODE     ---       #185
      00FF7B12H   LINE      CODE     ---       #187
      00FF7B16H   LINE      CODE     ---       #188
      ---         BLOCKEND  ---      ---       LVL=0

      00FF0006H   BLOCK     CODE     ---       LVL=0
      00FF0006H   LINE      CODE     ---       #197
      00FF0006H   LINE      CODE     ---       #199
      00FF0009H   LINE      CODE     ---       #200
      ---         BLOCKEND  ---      ---       LVL=0

      ---         MODULE    ---      ---       common
      00000CA7H   PUBLIC    EDATA    INT       wireless_type
      000000D0H   SFRSYM    DATA     BYTE      PSW
      0000009DH   SFRSYM    DATA     BYTE      IRCBAND
L251 LINKER/LOCATER V4.66.93.0                                                        07/31/2023  12:50:11  PAGE 29


      00000097H   SFRSYM    DATA     BYTE      AUXR2
      000000EFH   SFRSYM    DATA     BYTE      AUXINTIF
      000000FDH   SFRSYM    DATA     BYTE      S4CON
      000000ACH   SFRSYM    DATA     BYTE      S3CON
      0000009AH   SFRSYM    DATA     BYTE      S2CON
      000000B7H   SFRSYM    DATA     BYTE      IPH
      000000CDH   SFRSYM    DATA     BYTE      SPSTAT
      000000DDH   SFRSYM    DATA     BYTE      T4T3M
      000000C1H   SFRSYM    DATA     BYTE      WDT_CONTR
      000000DFH   SFRSYM    DATA     BYTE      IP3
      000000F4H   SFRSYM    DATA     BYTE      USBCON
      000000B5H   SFRSYM    DATA     BYTE      IP2
      000000FFH   SFRSYM    DATA     BYTE      RSTCFG
      000000F9H   SFRSYM    DATA     BYTE      LINICR
      0000008EH   SFRSYM    DATA     BYTE      AUXR
      000000AFH   SFRSYM    DATA     BYTE      IE2
      00000088H   SFRSYM    DATA     BYTE      TCON
      00000098H   SFRSYM    DATA     BYTE      SCON
      000000F1H   SFRSYM    DATA     BYTE      CANICR
      00000087H   SFRSYM    DATA     BYTE      PCON
      000000BCH   SFRSYM    DATA     BYTE      ADC_CONTR
      000000E7H   SFRSYM    DATA     BYTE      CMPCR2
      000000E6H   SFRSYM    DATA     BYTE      CMPCR1
      000000B8H   SFRSYM    DATA     BYTE      IP
      0000008FH   SFRSYM    DATA     BYTE      INTCLKO
      000000EEH   SFRSYM    DATA     BYTE      IP3H
      000000B6H   SFRSYM    DATA     BYTE      IP2H
      000000A8H   SFRSYM    DATA     BYTE      IE
      000000BBH   SFRSYM    DATA     BYTE      P_SW3
      000000BAH   SFRSYM    DATA     BYTE      P_SW2
      000000A2H   SFRSYM    DATA     BYTE      P_SW1
      000000CEH   SFRSYM    DATA     BYTE      SPCTL
      000000F8H   SFRSYM    DATA     BYTE      P7
      000000E8H   SFRSYM    DATA     BYTE      P6
      000000C8H   SFRSYM    DATA     BYTE      P5
      000000C0H   SFRSYM    DATA     BYTE      P4
      000000B0H   SFRSYM    DATA     BYTE      P3
      000000A0H   SFRSYM    DATA     BYTE      P2
      00000090H   SFRSYM    DATA     BYTE      P1
      00000080H   SFRSYM    DATA     BYTE      P0

      ---         MODULE    ---      ---       zf_adc
      00000094H   SFRSYM    DATA     BYTE      P0M0
      000000D0H   SFRSYM    DATA     BYTE      PSW
      0000009DH   SFRSYM    DATA     BYTE      IRCBAND
      00000097H   SFRSYM    DATA     BYTE      AUXR2
      000000EFH   SFRSYM    DATA     BYTE      AUXINTIF
      000000FDH   SFRSYM    DATA     BYTE      S4CON
      000000ACH   SFRSYM    DATA     BYTE      S3CON
      0000009AH   SFRSYM    DATA     BYTE      S2CON
      000000B7H   SFRSYM    DATA     BYTE      IPH
      000000CDH   SFRSYM    DATA     BYTE      SPSTAT
      000000BEH   SFRSYM    DATA     BYTE      ADC_RESL
      000000DDH   SFRSYM    DATA     BYTE      T4T3M
      000000C1H   SFRSYM    DATA     BYTE      WDT_CONTR
      000000DFH   SFRSYM    DATA     BYTE      IP3
      000000F4H   SFRSYM    DATA     BYTE      USBCON
      000000B5H   SFRSYM    DATA     BYTE      IP2
      000000FFH   SFRSYM    DATA     BYTE      RSTCFG
      000000F9H   SFRSYM    DATA     BYTE      LINICR
      0000008EH   SFRSYM    DATA     BYTE      AUXR
      000000AFH   SFRSYM    DATA     BYTE      IE2
      00000088H   SFRSYM    DATA     BYTE      TCON
      00000098H   SFRSYM    DATA     BYTE      SCON
      000000F1H   SFRSYM    DATA     BYTE      CANICR
L251 LINKER/LOCATER V4.66.93.0                                                        07/31/2023  12:50:11  PAGE 30


      00000087H   SFRSYM    DATA     BYTE      PCON
      000000BCH   SFRSYM    DATA     BYTE      ADC_CONTR
      000000E7H   SFRSYM    DATA     BYTE      CMPCR2
      000000E6H   SFRSYM    DATA     BYTE      CMPCR1
      000000DEH   SFRSYM    DATA     BYTE      ADCCFG
      000000B8H   SFRSYM    DATA     BYTE      IP
      0000008FH   SFRSYM    DATA     BYTE      INTCLKO
      000000EEH   SFRSYM    DATA     BYTE      IP3H
      000000B6H   SFRSYM    DATA     BYTE      IP2H
      000000BDH   SFRSYM    DATA     BYTE      ADC_RES
      000000A8H   SFRSYM    DATA     BYTE      IE
      000000BBH   SFRSYM    DATA     BYTE      P_SW3
      000000BAH   SFRSYM    DATA     BYTE      P_SW2
      000000A2H   SFRSYM    DATA     BYTE      P_SW1
      000000CEH   SFRSYM    DATA     BYTE      SPCTL
      000000F8H   SFRSYM    DATA     BYTE      P7
      000000E8H   SFRSYM    DATA     BYTE      P6
      000000C8H   SFRSYM    DATA     BYTE      P5
      000000C0H   SFRSYM    DATA     BYTE      P4
      000000B0H   SFRSYM    DATA     BYTE      P3
      000000A0H   SFRSYM    DATA     BYTE      P2
      00000090H   SFRSYM    DATA     BYTE      P1
      00000080H   SFRSYM    DATA     BYTE      P0
      00000091H   SFRSYM    DATA     BYTE      P1M1
      00000092H   SFRSYM    DATA     BYTE      P1M0
      00000093H   SFRSYM    DATA     BYTE      P0M1
      00000C19H   SYMBOL    EDATA    INT       adcn
      00000C1BH   SYMBOL    EDATA    INT       speed
      00000B49H   SYMBOL    EDATA    INT       adcn
      00000B4BH   SYMBOL    EDATA    INT       resolution
      00000B4DH   SYMBOL    EDATA    WORD      adc_value

      ---         MODULE    ---      ---       zf_delay
      00FF749DH   PUBLIC    CODE     ---       delay_init
      00FF758DH   PUBLIC    CODE     ---       delay_ms
      00000C1DH   PUBLIC    EDATA    WORD      zf_delay_ms
      00000C1FH   PUBLIC    EDATA    WORD      zf_delay_us
      000000D0H   SFRSYM    DATA     BYTE      PSW
      0000009DH   SFRSYM    DATA     BYTE      IRCBAND
      00000097H   SFRSYM    DATA     BYTE      AUXR2
      000000EFH   SFRSYM    DATA     BYTE      AUXINTIF
      000000FDH   SFRSYM    DATA     BYTE      S4CON
      000000ACH   SFRSYM    DATA     BYTE      S3CON
      0000009AH   SFRSYM    DATA     BYTE      S2CON
      000000B7H   SFRSYM    DATA     BYTE      IPH
      000000CDH   SFRSYM    DATA     BYTE      SPSTAT
      000000DDH   SFRSYM    DATA     BYTE      T4T3M
      000000C1H   SFRSYM    DATA     BYTE      WDT_CONTR
      000000DFH   SFRSYM    DATA     BYTE      IP3
      000000F4H   SFRSYM    DATA     BYTE      USBCON
      000000B5H   SFRSYM    DATA     BYTE      IP2
      000000FFH   SFRSYM    DATA     BYTE      RSTCFG
      000000F9H   SFRSYM    DATA     BYTE      LINICR
      0000008EH   SFRSYM    DATA     BYTE      AUXR
      000000AFH   SFRSYM    DATA     BYTE      IE2
      00000088H   SFRSYM    DATA     BYTE      TCON
      00000098H   SFRSYM    DATA     BYTE      SCON
      000000F1H   SFRSYM    DATA     BYTE      CANICR
      00000087H   SFRSYM    DATA     BYTE      PCON
      000000BCH   SFRSYM    DATA     BYTE      ADC_CONTR
      000000E7H   SFRSYM    DATA     BYTE      CMPCR2
      000000E6H   SFRSYM    DATA     BYTE      CMPCR1
      000000B8H   SFRSYM    DATA     BYTE      IP
      0000008FH   SFRSYM    DATA     BYTE      INTCLKO
      000000EEH   SFRSYM    DATA     BYTE      IP3H
L251 LINKER/LOCATER V4.66.93.0                                                        07/31/2023  12:50:11  PAGE 31


      000000B6H   SFRSYM    DATA     BYTE      IP2H
      000000A8H   SFRSYM    DATA     BYTE      IE
      000000BBH   SFRSYM    DATA     BYTE      P_SW3
      000000BAH   SFRSYM    DATA     BYTE      P_SW2
      000000A2H   SFRSYM    DATA     BYTE      P_SW1
      000000CEH   SFRSYM    DATA     BYTE      SPCTL
      000000F8H   SFRSYM    DATA     BYTE      P7
      000000E8H   SFRSYM    DATA     BYTE      P6
      000000C8H   SFRSYM    DATA     BYTE      P5
      000000C0H   SFRSYM    DATA     BYTE      P4
      000000B0H   SFRSYM    DATA     BYTE      P3
      000000A0H   SFRSYM    DATA     BYTE      P2
      00000090H   SFRSYM    DATA     BYTE      P1
      00000080H   SFRSYM    DATA     BYTE      P0

      00FF749DH   BLOCK     CODE     ---       LVL=0
      00FF749DH   LINE      CODE     ---       #34
      00FF749DH   LINE      CODE     ---       #36
      00FF74ACH   LINE      CODE     ---       #37
      00FF74BFH   LINE      CODE     ---       #38
      00FF74DDH   LINE      CODE     ---       #40
      ---         BLOCKEND  ---      ---       LVL=0

      00FF758DH   BLOCK     CODE     ---       LVL=0
      00000C21H   SYMBOL    EDATA    WORD      ms
      00FF7591H   BLOCK     CODE     NEAR LAB  LVL=1
      00000C23H   SYMBOL    EDATA    WORD      i
      ---         BLOCKEND  ---      ---       LVL=1
      00FF758DH   LINE      CODE     ---       #48
      00FF7591H   LINE      CODE     ---       #49
      00FF7591H   LINE      CODE     ---       #51
      00FF7591H   LINE      CODE     ---       #52
      00FF7599H   LINE      CODE     ---       #54
      00FF75ADH   LINE      CODE     ---       #55
      00FF75C1H   LINE      CODE     ---       #56
      ---         BLOCKEND  ---      ---       LVL=0
      00000B4FH   SYMBOL    EDATA    DWORD     us
      00000B53H   SYMBOL    EDATA    WORD      i

      ---         MODULE    ---      ---       zf_eeprom
      00FF799BH   PUBLIC    CODE     ---       iap_set_tps
      00FF006EH   PUBLIC    CODE     ---       eeprom_trig
      00FF76A2H   PUBLIC    CODE     ---       iap_erase_page
      00FF6B9EH   PUBLIC    CODE     ---       iap_read_bytes
      00FF5E62H   PUBLIC    CODE     ---       extern_iap_write_bytes
      00FF0046H   PUBLIC    CODE     ---       iap_init
      00FF6CC3H   PUBLIC    CODE     ---       iap_write_bytes
      0000096BH   PUBLIC    EDATA    BYTE      ?iap_read_bytes?BYTE
      00000975H   PUBLIC    EDATA    BYTE      ?iap_write_bytes?BYTE
      000000D0H   SFRSYM    DATA     BYTE      PSW
      0000009DH   SFRSYM    DATA     BYTE      IRCBAND
      000000D0H.5 SFRSYM    DATA     BIT       F0
      00000097H   SFRSYM    DATA     BYTE      AUXR2
      000000C6H   SFRSYM    DATA     BYTE      IAP_TRIG
      000000EFH   SFRSYM    DATA     BYTE      AUXINTIF
      000000FDH   SFRSYM    DATA     BYTE      S4CON
      000000ACH   SFRSYM    DATA     BYTE      S3CON
      0000009AH   SFRSYM    DATA     BYTE      S2CON
      000000B7H   SFRSYM    DATA     BYTE      IPH
      000000CDH   SFRSYM    DATA     BYTE      SPSTAT
      000000DDH   SFRSYM    DATA     BYTE      T4T3M
      000000C1H   SFRSYM    DATA     BYTE      WDT_CONTR
      000000C2H   SFRSYM    DATA     BYTE      IAP_DATA
      000000DFH   SFRSYM    DATA     BYTE      IP3
      000000F4H   SFRSYM    DATA     BYTE      USBCON
L251 LINKER/LOCATER V4.66.93.0                                                        07/31/2023  12:50:11  PAGE 32


      000000B5H   SFRSYM    DATA     BYTE      IP2
      000000FFH   SFRSYM    DATA     BYTE      RSTCFG
      000000C7H   SFRSYM    DATA     BYTE      IAP_CONTR
      000000F9H   SFRSYM    DATA     BYTE      LINICR
      0000008EH   SFRSYM    DATA     BYTE      AUXR
      000000AFH   SFRSYM    DATA     BYTE      IE2
      00000088H   SFRSYM    DATA     BYTE      TCON
      00000098H   SFRSYM    DATA     BYTE      SCON
      000000F5H   SFRSYM    DATA     BYTE      IAP_TPS
      000000F1H   SFRSYM    DATA     BYTE      CANICR
      00000087H   SFRSYM    DATA     BYTE      PCON
      000000BCH   SFRSYM    DATA     BYTE      ADC_CONTR
      000000E7H   SFRSYM    DATA     BYTE      CMPCR2
      000000E6H   SFRSYM    DATA     BYTE      CMPCR1
      000000C4H   SFRSYM    DATA     BYTE      IAP_ADDRL
      000000C3H   SFRSYM    DATA     BYTE      IAP_ADDRH
      000000F6H   SFRSYM    DATA     BYTE      IAP_ADDRE
      000000B8H   SFRSYM    DATA     BYTE      IP
      0000008FH   SFRSYM    DATA     BYTE      INTCLKO
      000000EEH   SFRSYM    DATA     BYTE      IP3H
      000000B6H   SFRSYM    DATA     BYTE      IP2H
      000000C5H   SFRSYM    DATA     BYTE      IAP_CMD
      000000A8H   SFRSYM    DATA     BYTE      IE
      000000BBH   SFRSYM    DATA     BYTE      P_SW3
      000000BAH   SFRSYM    DATA     BYTE      P_SW2
      000000A2H   SFRSYM    DATA     BYTE      P_SW1
      000000CEH   SFRSYM    DATA     BYTE      SPCTL
      000000F8H   SFRSYM    DATA     BYTE      P7
      000000A8H.7 SFRSYM    DATA     BIT       EA
      000000E8H   SFRSYM    DATA     BYTE      P6
      000000C8H   SFRSYM    DATA     BYTE      P5
      000000C0H   SFRSYM    DATA     BYTE      P4
      000000B0H   SFRSYM    DATA     BYTE      P3
      000000A0H   SFRSYM    DATA     BYTE      P2
      00000090H   SFRSYM    DATA     BYTE      P1
      00000080H   SFRSYM    DATA     BYTE      P0

      00FF006EH   BLOCK     CODE     ---       LVL=0
      00FF006EH   LINE      CODE     ---       #30
      00FF006EH   LINE      CODE     ---       #32
      00FF0072H   LINE      CODE     ---       #33
      00FF0076H   LINE      CODE     ---       #34
      00FF007AH   LINE      CODE     ---       #37
      00FF007BH   LINE      CODE     ---       #38
      00FF007CH   LINE      CODE     ---       #39
      00FF007DH   LINE      CODE     ---       #40
      00FF007EH   LINE      CODE     ---       #42
      00FF0082H   LINE      CODE     ---       #43
      ---         BLOCKEND  ---      ---       LVL=0

      00FF0046H   BLOCK     CODE     ---       LVL=0
      00FF0046H   LINE      CODE     ---       #52
      00FF0046H   LINE      CODE     ---       #54
      00FF004AH   LINE      CODE     ---       #55
      00FF004DH   LINE      CODE     ---       #58
      ---         BLOCKEND  ---      ---       LVL=0

      00FF799BH   BLOCK     CODE     ---       LVL=0
      00000CECH   SYMBOL    EDATA    BYTE      write_time
      00FF799BH   LINE      CODE     ---       #91
      00FF799BH   LINE      CODE     ---       #92
      00FF799BH   LINE      CODE     ---       #94
      00FF79AEH   LINE      CODE     ---       #95
      00FF79B4H   LINE      CODE     ---       #96
      ---         BLOCKEND  ---      ---       LVL=0
L251 LINKER/LOCATER V4.66.93.0                                                        07/31/2023  12:50:11  PAGE 33



      00FF6B9EH   BLOCK     CODE     ---       LVL=0
      0000096BH   SYMBOL    EDATA    DWORD     addr
      0000096FH   SYMBOL    EDATA    ---       buf
      00000973H   SYMBOL    EDATA    WORD      len
      00FF6B9EH   LINE      CODE     ---       #109
      00FF6BA6H   LINE      CODE     ---       #113
      00FF6BAAH   LINE      CODE     ---       #115
      00FF6BACH   LINE      CODE     ---       #117
      00FF6BAFH   LINE      CODE     ---       #118
      00FF6BB5H   LINE      CODE     ---       #119
      00FF6BBDH   LINE      CODE     ---       #120
      00FF6BC5H   LINE      CODE     ---       #121
      00FF6BC8H   LINE      CODE     ---       #122
      00FF6BDBH   LINE      CODE     ---       #123
      00FF6BE9H   LINE      CODE     ---       #125
      00FF6BFFH   LINE      CODE     ---       #127
      ---         BLOCKEND  ---      ---       LVL=0

      00FF6CC3H   BLOCK     CODE     ---       LVL=0
      00000975H   SYMBOL    EDATA    DWORD     addr
      00000979H   SYMBOL    EDATA    ---       buf
      0000097DH   SYMBOL    EDATA    WORD      len
      00FF6CC3H   LINE      CODE     ---       #139
      00FF6CCBH   LINE      CODE     ---       #142
      00FF6CCFH   LINE      CODE     ---       #144
      00FF6CD1H   LINE      CODE     ---       #146
      00FF6CD4H   LINE      CODE     ---       #147
      00FF6CDAH   LINE      CODE     ---       #148
      00FF6CE2H   LINE      CODE     ---       #149
      00FF6CEAH   LINE      CODE     ---       #150
      00FF6CF9H   LINE      CODE     ---       #151
      00FF6D07H   LINE      CODE     ---       #153
      00FF6D0AH   LINE      CODE     ---       #154
      00FF6D20H   LINE      CODE     ---       #156
      ---         BLOCKEND  ---      ---       LVL=0

      00FF76A2H   BLOCK     CODE     ---       LVL=0
      00000C25H   SYMBOL    EDATA    DWORD     addr
      00FF76A2H   LINE      CODE     ---       #167
      00FF76A6H   LINE      CODE     ---       #170
      00FF76AAH   LINE      CODE     ---       #171
      00FF76B0H   LINE      CODE     ---       #172
      00FF76B8H   LINE      CODE     ---       #173
      00FF76C0H   LINE      CODE     ---       #174
      00FF76C3H   LINE      CODE     ---       #177
      00FF76CAH   LINE      CODE     ---       #178
      ---         BLOCKEND  ---      ---       LVL=0

      00FF5E62H   BLOCK     CODE     ---       LVL=0
      00000021H   SYMBOL    EDATA    WORD      addr
      00000023H   SYMBOL    EDATA    ---       buf
      00000027H   SYMBOL    EDATA    WORD      len
      00FF5E6EH   BLOCK     CODE     NEAR LAB  LVL=1
      00000029H   SYMBOL    EDATA    ---       temp
      00000229H   SYMBOL    EDATA    WORD      i
      ---         BLOCKEND  ---      ---       LVL=1
      00FF5E62H   LINE      CODE     ---       #193
      00FF5E6EH   LINE      CODE     ---       #194
      00FF5E6EH   LINE      CODE     ---       #198
      00FF5E9EH   LINE      CODE     ---       #199
      00FF5EB9H   LINE      CODE     ---       #200
      00FF5EFFH   LINE      CODE     ---       #201
      00FF5F08H   LINE      CODE     ---       #202
      00FF5F23H   LINE      CODE     ---       #203
L251 LINKER/LOCATER V4.66.93.0                                                        07/31/2023  12:50:11  PAGE 34


      ---         BLOCKEND  ---      ---       LVL=0

      ---         MODULE    ---      ---       zf_exti
      000000D0H   SFRSYM    DATA     BYTE      PSW
      0000009DH   SFRSYM    DATA     BYTE      IRCBAND
      00000097H   SFRSYM    DATA     BYTE      AUXR2
      000000EFH   SFRSYM    DATA     BYTE      AUXINTIF
      000000FDH   SFRSYM    DATA     BYTE      S4CON
      000000ACH   SFRSYM    DATA     BYTE      S3CON
      0000009AH   SFRSYM    DATA     BYTE      S2CON
      000000B7H   SFRSYM    DATA     BYTE      IPH
      000000CDH   SFRSYM    DATA     BYTE      SPSTAT
      000000DDH   SFRSYM    DATA     BYTE      T4T3M
      000000C1H   SFRSYM    DATA     BYTE      WDT_CONTR
      00000088H.2 SFRSYM    DATA     BIT       IT1
      000000A8H.2 SFRSYM    DATA     BIT       EX1
      00000088H.0 SFRSYM    DATA     BIT       IT0
      000000A8H.0 SFRSYM    DATA     BIT       EX0
      000000DFH   SFRSYM    DATA     BYTE      IP3
      000000F4H   SFRSYM    DATA     BYTE      USBCON
      000000B5H   SFRSYM    DATA     BYTE      IP2
      000000FFH   SFRSYM    DATA     BYTE      RSTCFG
      000000F9H   SFRSYM    DATA     BYTE      LINICR
      0000008EH   SFRSYM    DATA     BYTE      AUXR
      000000AFH   SFRSYM    DATA     BYTE      IE2
      00000088H   SFRSYM    DATA     BYTE      TCON
      00000098H   SFRSYM    DATA     BYTE      SCON
      000000F1H   SFRSYM    DATA     BYTE      CANICR
      00000087H   SFRSYM    DATA     BYTE      PCON
      000000BCH   SFRSYM    DATA     BYTE      ADC_CONTR
      000000E7H   SFRSYM    DATA     BYTE      CMPCR2
      000000E6H   SFRSYM    DATA     BYTE      CMPCR1
      000000B8H   SFRSYM    DATA     BYTE      IP
      0000008FH   SFRSYM    DATA     BYTE      INTCLKO
      000000EEH   SFRSYM    DATA     BYTE      IP3H
      000000B6H   SFRSYM    DATA     BYTE      IP2H
      000000A8H   SFRSYM    DATA     BYTE      IE
      000000BBH   SFRSYM    DATA     BYTE      P_SW3
      000000BAH   SFRSYM    DATA     BYTE      P_SW2
      000000A2H   SFRSYM    DATA     BYTE      P_SW1
      000000CEH   SFRSYM    DATA     BYTE      SPCTL
      000000F8H   SFRSYM    DATA     BYTE      P7
      000000E8H   SFRSYM    DATA     BYTE      P6
      000000C8H   SFRSYM    DATA     BYTE      P5
      000000C0H   SFRSYM    DATA     BYTE      P4
      000000B0H   SFRSYM    DATA     BYTE      P3
      000000A0H   SFRSYM    DATA     BYTE      P2
      00000090H   SFRSYM    DATA     BYTE      P1
      00000080H   SFRSYM    DATA     BYTE      P0
      00000C29H   SYMBOL    EDATA    INT       int_n
      00000C2BH   SYMBOL    EDATA    INT       mode

      ---         MODULE    ---      ---       zf_gpio
      00FF38D0H   PUBLIC    CODE     ---       gpio_mode
      00000094H   SFRSYM    DATA     BYTE      P0M0
      000000D0H   SFRSYM    DATA     BYTE      PSW
      0000009DH   SFRSYM    DATA     BYTE      IRCBAND
      00000097H   SFRSYM    DATA     BYTE      AUXR2
      000000EFH   SFRSYM    DATA     BYTE      AUXINTIF
      000000FDH   SFRSYM    DATA     BYTE      S4CON
      000000ACH   SFRSYM    DATA     BYTE      S3CON
      0000009AH   SFRSYM    DATA     BYTE      S2CON
      000000B7H   SFRSYM    DATA     BYTE      IPH
      000000CDH   SFRSYM    DATA     BYTE      SPSTAT
      000000DDH   SFRSYM    DATA     BYTE      T4T3M
L251 LINKER/LOCATER V4.66.93.0                                                        07/31/2023  12:50:11  PAGE 35


      000000C1H   SFRSYM    DATA     BYTE      WDT_CONTR
      000000DFH   SFRSYM    DATA     BYTE      IP3
      000000F4H   SFRSYM    DATA     BYTE      USBCON
      000000B5H   SFRSYM    DATA     BYTE      IP2
      000000FFH   SFRSYM    DATA     BYTE      RSTCFG
      000000F9H   SFRSYM    DATA     BYTE      LINICR
      0000008EH   SFRSYM    DATA     BYTE      AUXR
      000000AFH   SFRSYM    DATA     BYTE      IE2
      00000088H   SFRSYM    DATA     BYTE      TCON
      00000098H   SFRSYM    DATA     BYTE      SCON
      000000F1H   SFRSYM    DATA     BYTE      CANICR
      00000087H   SFRSYM    DATA     BYTE      PCON
      000000BCH   SFRSYM    DATA     BYTE      ADC_CONTR
      000000E7H   SFRSYM    DATA     BYTE      CMPCR2
      000000E6H   SFRSYM    DATA     BYTE      CMPCR1
      000000B8H   SFRSYM    DATA     BYTE      IP
      0000008FH   SFRSYM    DATA     BYTE      INTCLKO
      000000EEH   SFRSYM    DATA     BYTE      IP3H
      000000B6H   SFRSYM    DATA     BYTE      IP2H
      000000A8H   SFRSYM    DATA     BYTE      IE
      000000BBH   SFRSYM    DATA     BYTE      P_SW3
      000000BAH   SFRSYM    DATA     BYTE      P_SW2
      000000A2H   SFRSYM    DATA     BYTE      P_SW1
      000000CEH   SFRSYM    DATA     BYTE      SPCTL
      000000F8H   SFRSYM    DATA     BYTE      P7
      000000E1H   SFRSYM    DATA     BYTE      P7M1
      000000E8H   SFRSYM    DATA     BYTE      P6
      000000C8H   SFRSYM    DATA     BYTE      P5
      000000CBH   SFRSYM    DATA     BYTE      P6M1
      000000E2H   SFRSYM    DATA     BYTE      P7M0
      000000C0H   SFRSYM    DATA     BYTE      P4
      000000C9H   SFRSYM    DATA     BYTE      P5M1
      000000CCH   SFRSYM    DATA     BYTE      P6M0
      000000B0H   SFRSYM    DATA     BYTE      P3
      000000B3H   SFRSYM    DATA     BYTE      P4M1
      000000CAH   SFRSYM    DATA     BYTE      P5M0
      000000A0H   SFRSYM    DATA     BYTE      P2
      000000B1H   SFRSYM    DATA     BYTE      P3M1
      000000B4H   SFRSYM    DATA     BYTE      P4M0
      00000090H   SFRSYM    DATA     BYTE      P1
      00000095H   SFRSYM    DATA     BYTE      P2M1
      000000B2H   SFRSYM    DATA     BYTE      P3M0
      00000080H   SFRSYM    DATA     BYTE      P0
      00000091H   SFRSYM    DATA     BYTE      P1M1
      00000096H   SFRSYM    DATA     BYTE      P2M0
      00000092H   SFRSYM    DATA     BYTE      P1M0
      00000093H   SFRSYM    DATA     BYTE      P0M1
      00000C2DH   SYMBOL    EDATA    INT       pin
      00000C2FH   SYMBOL    EDATA    INT       pull

      00FF38D0H   BLOCK     CODE     ---       LVL=0
      00000C31H   SYMBOL    EDATA    INT       pin
      00000C33H   SYMBOL    EDATA    INT       mode
      00FF38D0H   LINE      CODE     ---       #54
      00FF38D8H   LINE      CODE     ---       #56
      00FF38E5H   LINE      CODE     ---       #58
      00FF38F5H   LINE      CODE     ---       #60
      00FF3910H   LINE      CODE     ---       #61
      00FF392BH   LINE      CODE     ---       #62
      00FF392BH   LINE      CODE     ---       #63
      00FF393DH   LINE      CODE     ---       #65
      00FF3958H   LINE      CODE     ---       #66
      00FF3973H   LINE      CODE     ---       #67
      00FF3973H   LINE      CODE     ---       #68
      00FF3985H   LINE      CODE     ---       #70
L251 LINKER/LOCATER V4.66.93.0                                                        07/31/2023  12:50:11  PAGE 36


      00FF39A0H   LINE      CODE     ---       #71
      00FF39BBH   LINE      CODE     ---       #72
      00FF39BBH   LINE      CODE     ---       #74
      00FF39CDH   LINE      CODE     ---       #76
      00FF39E8H   LINE      CODE     ---       #77
      00FF3A03H   LINE      CODE     ---       #78
      00FF3A03H   LINE      CODE     ---       #79
      00FF3A15H   LINE      CODE     ---       #81
      00FF3A30H   LINE      CODE     ---       #82
      00FF3A4BH   LINE      CODE     ---       #83
      00FF3A4BH   LINE      CODE     ---       #84
      00FF3A5DH   LINE      CODE     ---       #86
      00FF3A78H   LINE      CODE     ---       #87
      00FF3A93H   LINE      CODE     ---       #88
      00FF3A93H   LINE      CODE     ---       #89
      00FF3AA5H   LINE      CODE     ---       #91
      00FF3AC0H   LINE      CODE     ---       #92
      00FF3ADBH   LINE      CODE     ---       #93
      00FF3ADBH   LINE      CODE     ---       #94
      00FF3AF0H   LINE      CODE     ---       #96
      00FF3B0BH   LINE      CODE     ---       #97
      00FF3B26H   LINE      CODE     ---       #98
      00FF3B29H   LINE      CODE     ---       #100
      00FF3B38H   LINE      CODE     ---       #102
      00FF3B48H   LINE      CODE     ---       #104
      00FF3B63H   LINE      CODE     ---       #105
      00FF3B7CH   LINE      CODE     ---       #106
      00FF3B7CH   LINE      CODE     ---       #107
      00FF3B8EH   LINE      CODE     ---       #109
      00FF3BA9H   LINE      CODE     ---       #110
      00FF3BC2H   LINE      CODE     ---       #111
      00FF3BC2H   LINE      CODE     ---       #112
      00FF3BD4H   LINE      CODE     ---       #114
      00FF3BEFH   LINE      CODE     ---       #115
      00FF3C08H   LINE      CODE     ---       #116
      00FF3C08H   LINE      CODE     ---       #118
      00FF3C1AH   LINE      CODE     ---       #120
      00FF3C35H   LINE      CODE     ---       #121
      00FF3C4EH   LINE      CODE     ---       #122
      00FF3C4EH   LINE      CODE     ---       #123
      00FF3C60H   LINE      CODE     ---       #125
      00FF3C7BH   LINE      CODE     ---       #126
      00FF3C94H   LINE      CODE     ---       #127
      00FF3C94H   LINE      CODE     ---       #128
      00FF3CA6H   LINE      CODE     ---       #130
      00FF3CC1H   LINE      CODE     ---       #131
      00FF3CDAH   LINE      CODE     ---       #132
      00FF3CDAH   LINE      CODE     ---       #133
      00FF3CECH   LINE      CODE     ---       #135
      00FF3D07H   LINE      CODE     ---       #136
      00FF3D20H   LINE      CODE     ---       #137
      00FF3D20H   LINE      CODE     ---       #138
      00FF3D35H   LINE      CODE     ---       #140
      00FF3D50H   LINE      CODE     ---       #141
      00FF3D69H   LINE      CODE     ---       #142
      00FF3D6CH   LINE      CODE     ---       #145
      00FF3D7BH   LINE      CODE     ---       #147
      00FF3D8BH   LINE      CODE     ---       #149
      00FF3DA4H   LINE      CODE     ---       #150
      00FF3DBFH   LINE      CODE     ---       #151
      00FF3DBFH   LINE      CODE     ---       #152
      00FF3DD1H   LINE      CODE     ---       #154
      00FF3DEAH   LINE      CODE     ---       #155
      00FF3E05H   LINE      CODE     ---       #156
      00FF3E05H   LINE      CODE     ---       #157
L251 LINKER/LOCATER V4.66.93.0                                                        07/31/2023  12:50:11  PAGE 37


      00FF3E17H   LINE      CODE     ---       #159
      00FF3E30H   LINE      CODE     ---       #160
      00FF3E4BH   LINE      CODE     ---       #161
      00FF3E4BH   LINE      CODE     ---       #163
      00FF3E5DH   LINE      CODE     ---       #165
      00FF3E76H   LINE      CODE     ---       #166
      00FF3E91H   LINE      CODE     ---       #167
      00FF3E91H   LINE      CODE     ---       #168
      00FF3EA3H   LINE      CODE     ---       #170
      00FF3EBCH   LINE      CODE     ---       #171
      00FF3ED7H   LINE      CODE     ---       #172
      00FF3ED7H   LINE      CODE     ---       #173
      00FF3EE9H   LINE      CODE     ---       #175
      00FF3F02H   LINE      CODE     ---       #176
      00FF3F1DH   LINE      CODE     ---       #177
      00FF3F1DH   LINE      CODE     ---       #178
      00FF3F2FH   LINE      CODE     ---       #180
      00FF3F48H   LINE      CODE     ---       #181
      00FF3F63H   LINE      CODE     ---       #182
      00FF3F63H   LINE      CODE     ---       #183
      00FF3F78H   LINE      CODE     ---       #185
      00FF3F91H   LINE      CODE     ---       #186
      00FF3FACH   LINE      CODE     ---       #187
      00FF3FAFH   LINE      CODE     ---       #189
      00FF3FBEH   LINE      CODE     ---       #191
      00FF3FCEH   LINE      CODE     ---       #193
      00FF3FE7H   LINE      CODE     ---       #194
      00FF4000H   LINE      CODE     ---       #195
      00FF4000H   LINE      CODE     ---       #196
      00FF4012H   LINE      CODE     ---       #198
      00FF402BH   LINE      CODE     ---       #199
      00FF4044H   LINE      CODE     ---       #200
      00FF4044H   LINE      CODE     ---       #201
      00FF4056H   LINE      CODE     ---       #203
      00FF406FH   LINE      CODE     ---       #204
      00FF4088H   LINE      CODE     ---       #205
      00FF4088H   LINE      CODE     ---       #207
      00FF409AH   LINE      CODE     ---       #209
      00FF40B3H   LINE      CODE     ---       #210
      00FF40CCH   LINE      CODE     ---       #211
      00FF40CCH   LINE      CODE     ---       #212
      00FF40DEH   LINE      CODE     ---       #214
      00FF40F7H   LINE      CODE     ---       #215
      00FF4110H   LINE      CODE     ---       #216
      00FF4110H   LINE      CODE     ---       #217
      00FF4122H   LINE      CODE     ---       #219
      00FF413BH   LINE      CODE     ---       #220
      00FF4154H   LINE      CODE     ---       #221
      00FF4154H   LINE      CODE     ---       #222
      00FF4166H   LINE      CODE     ---       #224
      00FF417FH   LINE      CODE     ---       #225
      00FF4198H   LINE      CODE     ---       #226
      00FF4198H   LINE      CODE     ---       #227
      00FF41AAH   LINE      CODE     ---       #229
      00FF41C3H   LINE      CODE     ---       #230
      00FF41DCH   LINE      CODE     ---       #231
      00FF41DCH   LINE      CODE     ---       #233
      ---         BLOCKEND  ---      ---       LVL=0

      ---         MODULE    ---      ---       zf_nvic
      000000D0H   SFRSYM    DATA     BYTE      PSW
      0000009DH   SFRSYM    DATA     BYTE      IRCBAND
      00000097H   SFRSYM    DATA     BYTE      AUXR2
      000000EFH   SFRSYM    DATA     BYTE      AUXINTIF
      000000FDH   SFRSYM    DATA     BYTE      S4CON
L251 LINKER/LOCATER V4.66.93.0                                                        07/31/2023  12:50:11  PAGE 38


      000000ACH   SFRSYM    DATA     BYTE      S3CON
      0000009AH   SFRSYM    DATA     BYTE      S2CON
      000000B7H   SFRSYM    DATA     BYTE      IPH
      000000CDH   SFRSYM    DATA     BYTE      SPSTAT
      000000DDH   SFRSYM    DATA     BYTE      T4T3M
      000000C1H   SFRSYM    DATA     BYTE      WDT_CONTR
      000000DFH   SFRSYM    DATA     BYTE      IP3
      000000F4H   SFRSYM    DATA     BYTE      USBCON
      000000B5H   SFRSYM    DATA     BYTE      IP2
      000000FFH   SFRSYM    DATA     BYTE      RSTCFG
      000000F9H   SFRSYM    DATA     BYTE      LINICR
      0000008EH   SFRSYM    DATA     BYTE      AUXR
      000000AFH   SFRSYM    DATA     BYTE      IE2
      00000088H   SFRSYM    DATA     BYTE      TCON
      00000098H   SFRSYM    DATA     BYTE      SCON
      000000F1H   SFRSYM    DATA     BYTE      CANICR
      00000087H   SFRSYM    DATA     BYTE      PCON
      000000BCH   SFRSYM    DATA     BYTE      ADC_CONTR
      000000E7H   SFRSYM    DATA     BYTE      CMPCR2
      000000E6H   SFRSYM    DATA     BYTE      CMPCR1
      000000B8H   SFRSYM    DATA     BYTE      IP
      0000008FH   SFRSYM    DATA     BYTE      INTCLKO
      000000EEH   SFRSYM    DATA     BYTE      IP3H
      000000B6H   SFRSYM    DATA     BYTE      IP2H
      000000A8H   SFRSYM    DATA     BYTE      IE
      000000BBH   SFRSYM    DATA     BYTE      P_SW3
      000000BAH   SFRSYM    DATA     BYTE      P_SW2
      000000A2H   SFRSYM    DATA     BYTE      P_SW1
      000000CEH   SFRSYM    DATA     BYTE      SPCTL
      000000F8H   SFRSYM    DATA     BYTE      P7
      000000E8H   SFRSYM    DATA     BYTE      P6
      000000C8H   SFRSYM    DATA     BYTE      P5
      000000C0H   SFRSYM    DATA     BYTE      P4
      000000B0H   SFRSYM    DATA     BYTE      P3
      000000A0H   SFRSYM    DATA     BYTE      P2
      00000090H   SFRSYM    DATA     BYTE      P1
      00000080H   SFRSYM    DATA     BYTE      P0
      0000001DH   SYMBOL    EDATA    INT       irqn
      0000001FH   SYMBOL    EDATA    BYTE      priority

      ---         MODULE    ---      ---       zf_pwm
      00FF7DE8H   PUBLIC    HCONST   ---       PWM_CCR_ADDR
      00FF7E08H   PUBLIC    HCONST   ---       PWM_ARR_ADDR
      00FF7E10H   PUBLIC    HCONST   ---       PWM_CCER_ADDR
      00FF7E20H   PUBLIC    HCONST   ---       PWM_CCMR_ADDR
      00000728H   PUBLIC    EDATA    BYTE      ?pwm_init?BYTE
      0000073CH   PUBLIC    EDATA    BYTE      ?pwm_freq?BYTE
      000000D0H   SFRSYM    DATA     BYTE      PSW
      0000009DH   SFRSYM    DATA     BYTE      IRCBAND
      00000097H   SFRSYM    DATA     BYTE      AUXR2
      000000EFH   SFRSYM    DATA     BYTE      AUXINTIF
      000000FDH   SFRSYM    DATA     BYTE      S4CON
      000000ACH   SFRSYM    DATA     BYTE      S3CON
      0000009AH   SFRSYM    DATA     BYTE      S2CON
      000000B7H   SFRSYM    DATA     BYTE      IPH
      000000CDH   SFRSYM    DATA     BYTE      SPSTAT
      000000DDH   SFRSYM    DATA     BYTE      T4T3M
      000000C1H   SFRSYM    DATA     BYTE      WDT_CONTR
      000000DFH   SFRSYM    DATA     BYTE      IP3
      000000F4H   SFRSYM    DATA     BYTE      USBCON
      000000B5H   SFRSYM    DATA     BYTE      IP2
      000000FFH   SFRSYM    DATA     BYTE      RSTCFG
      000000F9H   SFRSYM    DATA     BYTE      LINICR
      0000008EH   SFRSYM    DATA     BYTE      AUXR
      000000AFH   SFRSYM    DATA     BYTE      IE2
L251 LINKER/LOCATER V4.66.93.0                                                        07/31/2023  12:50:11  PAGE 39


      00000088H   SFRSYM    DATA     BYTE      TCON
      00000098H   SFRSYM    DATA     BYTE      SCON
      000000F1H   SFRSYM    DATA     BYTE      CANICR
      00000087H   SFRSYM    DATA     BYTE      PCON
      000000BCH   SFRSYM    DATA     BYTE      ADC_CONTR
      000000E7H   SFRSYM    DATA     BYTE      CMPCR2
      000000E6H   SFRSYM    DATA     BYTE      CMPCR1
      000000B8H   SFRSYM    DATA     BYTE      IP
      0000008FH   SFRSYM    DATA     BYTE      INTCLKO
      000000EEH   SFRSYM    DATA     BYTE      IP3H
      000000B6H   SFRSYM    DATA     BYTE      IP2H
      000000A8H   SFRSYM    DATA     BYTE      IE
      000000BBH   SFRSYM    DATA     BYTE      P_SW3
      000000BAH   SFRSYM    DATA     BYTE      P_SW2
      000000A2H   SFRSYM    DATA     BYTE      P_SW1
      000000CEH   SFRSYM    DATA     BYTE      SPCTL
      000000F8H   SFRSYM    DATA     BYTE      P7
      000000E8H   SFRSYM    DATA     BYTE      P6
      000000C8H   SFRSYM    DATA     BYTE      P5
      000000C0H   SFRSYM    DATA     BYTE      P4
      000000B0H   SFRSYM    DATA     BYTE      P3
      000000A0H   SFRSYM    DATA     BYTE      P2
      00000090H   SFRSYM    DATA     BYTE      P1
      00000080H   SFRSYM    DATA     BYTE      P0
      00000CA9H   SYMBOL    EDATA    INT       pwmch
      00000728H   SYMBOL    EDATA    INT       pwmch
      0000072AH   SYMBOL    EDATA    DWORD     freq
      0000072EH   SYMBOL    EDATA    DWORD     duty
      00000732H   SYMBOL    EDATA    DWORD     match_temp
      00000736H   SYMBOL    EDATA    DWORD     period_temp
      0000073AH   SYMBOL    EDATA    WORD      freq_div
      000007CDH   SYMBOL    EDATA    INT       pwmch
      000007CFH   SYMBOL    EDATA    DWORD     duty
      000007D3H   SYMBOL    EDATA    DWORD     match_temp
      000007D7H   SYMBOL    EDATA    DWORD     arr
      0000073CH   SYMBOL    EDATA    INT       pwmch
      0000073EH   SYMBOL    EDATA    DWORD     freq
      00000742H   SYMBOL    EDATA    DWORD     duty
      00000746H   SYMBOL    EDATA    DWORD     match_temp
      0000074AH   SYMBOL    EDATA    DWORD     period_temp
      0000074EH   SYMBOL    EDATA    WORD      freq_div

      ---         MODULE    ---      ---       zf_spi
      00FF5AEEH   PUBLIC    CODE     ---       spi_init
      00FF7B17H   PUBLIC    CODE     ---       spi_mosi
      00000B12H   PUBLIC    EDATA    BYTE      ?spi_init?BYTE
      000000CFH   SFRSYM    DATA     BYTE      SPDAT
      000000D0H   SFRSYM    DATA     BYTE      PSW
      0000009DH   SFRSYM    DATA     BYTE      IRCBAND
      00000097H   SFRSYM    DATA     BYTE      AUXR2
      000000EFH   SFRSYM    DATA     BYTE      AUXINTIF
      000000FDH   SFRSYM    DATA     BYTE      S4CON
      000000ACH   SFRSYM    DATA     BYTE      S3CON
      0000009AH   SFRSYM    DATA     BYTE      S2CON
      000000B7H   SFRSYM    DATA     BYTE      IPH
      000000CDH   SFRSYM    DATA     BYTE      SPSTAT
      000000DDH   SFRSYM    DATA     BYTE      T4T3M
      000000C1H   SFRSYM    DATA     BYTE      WDT_CONTR
      000000DFH   SFRSYM    DATA     BYTE      IP3
      000000F4H   SFRSYM    DATA     BYTE      USBCON
      000000B5H   SFRSYM    DATA     BYTE      IP2
      000000FFH   SFRSYM    DATA     BYTE      RSTCFG
      000000F9H   SFRSYM    DATA     BYTE      LINICR
      0000008EH   SFRSYM    DATA     BYTE      AUXR
      000000AFH   SFRSYM    DATA     BYTE      IE2
L251 LINKER/LOCATER V4.66.93.0                                                        07/31/2023  12:50:11  PAGE 40


      00000088H   SFRSYM    DATA     BYTE      TCON
      00000098H   SFRSYM    DATA     BYTE      SCON
      000000F1H   SFRSYM    DATA     BYTE      CANICR
      00000087H   SFRSYM    DATA     BYTE      PCON
      000000BCH   SFRSYM    DATA     BYTE      ADC_CONTR
      000000E7H   SFRSYM    DATA     BYTE      CMPCR2
      000000E6H   SFRSYM    DATA     BYTE      CMPCR1
      000000B8H   SFRSYM    DATA     BYTE      IP
      0000008FH   SFRSYM    DATA     BYTE      INTCLKO
      000000EEH   SFRSYM    DATA     BYTE      IP3H
      000000B6H   SFRSYM    DATA     BYTE      IP2H
      000000A8H   SFRSYM    DATA     BYTE      IE
      000000BBH   SFRSYM    DATA     BYTE      P_SW3
      000000BAH   SFRSYM    DATA     BYTE      P_SW2
      000000A2H   SFRSYM    DATA     BYTE      P_SW1
      000000CEH   SFRSYM    DATA     BYTE      SPCTL
      000000F8H   SFRSYM    DATA     BYTE      P7
      000000E8H   SFRSYM    DATA     BYTE      P6
      000000C8H   SFRSYM    DATA     BYTE      P5
      000000C0H   SFRSYM    DATA     BYTE      P4
      000000B0H   SFRSYM    DATA     BYTE      P3
      000000A0H   SFRSYM    DATA     BYTE      P2
      00000090H   SFRSYM    DATA     BYTE      P1
      00000080H   SFRSYM    DATA     BYTE      P0

      00FF5AEEH   BLOCK     CODE     ---       LVL=0
      00000B18H   SYMBOL    EDATA    INT       spi_n
      00000B1AH   SYMBOL    EDATA    BYTE      mode
      00000B1BH   SYMBOL    EDATA    INT       mstr
      00000B1DH   SYMBOL    EDATA    INT       baud
      00FF5AEEH   LINE      CODE     ---       #39
      00FF5AF6H   LINE      CODE     ---       #47
      00FF5B08H   LINE      CODE     ---       #50
      00FF5B08H   LINE      CODE     ---       #51
      00FF5B11H   LINE      CODE     ---       #52
      00FF5B1AH   LINE      CODE     ---       #53
      00FF5B23H   LINE      CODE     ---       #54
      00FF5B25H   LINE      CODE     ---       #55
      00FF5B25H   LINE      CODE     ---       #56
      00FF5B2EH   LINE      CODE     ---       #57
      00FF5B37H   LINE      CODE     ---       #58
      00FF5B40H   LINE      CODE     ---       #59
      00FF5B42H   LINE      CODE     ---       #60
      00FF5B42H   LINE      CODE     ---       #61
      00FF5B4BH   LINE      CODE     ---       #62
      00FF5B54H   LINE      CODE     ---       #63
      00FF5B5DH   LINE      CODE     ---       #64
      00FF5B5FH   LINE      CODE     ---       #65
      00FF5B5FH   LINE      CODE     ---       #66
      00FF5B68H   LINE      CODE     ---       #67
      00FF5B71H   LINE      CODE     ---       #68
      00FF5B7AH   LINE      CODE     ---       #69
      00FF5B7AH   LINE      CODE     ---       #70
      00FF5B7AH   LINE      CODE     ---       #72
      00FF5B7DH   LINE      CODE     ---       #73
      00FF5B93H   LINE      CODE     ---       #75
      00FF5B93H   LINE      CODE     ---       #76
      00FF5B97H   LINE      CODE     ---       #77
      00FF5B99H   LINE      CODE     ---       #78
      00FF5B99H   LINE      CODE     ---       #79
      00FF5B9CH   LINE      CODE     ---       #80
      00FF5B9EH   LINE      CODE     ---       #81
      00FF5B9EH   LINE      CODE     ---       #82
      00FF5BA1H   LINE      CODE     ---       #83
      00FF5BA3H   LINE      CODE     ---       #84
L251 LINKER/LOCATER V4.66.93.0                                                        07/31/2023  12:50:11  PAGE 41


      00FF5BA3H   LINE      CODE     ---       #85
      00FF5BA6H   LINE      CODE     ---       #86
      00FF5BA6H   LINE      CODE     ---       #87
      00FF5BA6H   LINE      CODE     ---       #89
      00FF5BA9H   LINE      CODE     ---       #90
      00FF5BB8H   LINE      CODE     ---       #92
      00FF5BB8H   LINE      CODE     ---       #94
      00FF5BBAH   LINE      CODE     ---       #95
      00FF5BBAH   LINE      CODE     ---       #96
      00FF5BBDH   LINE      CODE     ---       #97
      00FF5BBFH   LINE      CODE     ---       #98
      00FF5BBFH   LINE      CODE     ---       #99
      00FF5BC2H   LINE      CODE     ---       #100
      00FF5BC4H   LINE      CODE     ---       #101
      00FF5BC4H   LINE      CODE     ---       #102
      00FF5BC7H   LINE      CODE     ---       #103
      00FF5BC7H   LINE      CODE     ---       #104
      00FF5BC7H   LINE      CODE     ---       #107
      00FF5BCFH   LINE      CODE     ---       #109
      00FF5BD9H   LINE      CODE     ---       #111
      00FF5BDCH   LINE      CODE     ---       #112
      00FF5BDFH   LINE      CODE     ---       #113
      00FF5BDFH   LINE      CODE     ---       #117
      00FF5BDFH   LINE      CODE     ---       #118
      00FF5BE2H   LINE      CODE     ---       #119
      ---         BLOCKEND  ---      ---       LVL=0

      00FF7B17H   BLOCK     CODE     ---       LVL=0
      00000CEDH   SYMBOL    EDATA    BYTE      dat
      00FF7B17H   LINE      CODE     ---       #129
      00FF7B1BH   LINE      CODE     ---       #131
      00FF7B1DH   LINE      CODE     ---       #132
      00FF7B22H   LINE      CODE     ---       #133
      00FF7B26H   LINE      CODE     ---       #134
      00FF7B28H   LINE      CODE     ---       #135
      ---         BLOCKEND  ---      ---       LVL=0
      00000CABH   SYMBOL    EDATA    INT       spi_n
      00000CEEH   SYMBOL    EDATA    BYTE      mode

      ---         MODULE    ---      ---       zf_tim
      00FF5BE3H   PUBLIC    CODE     ---       pit_timer_ms
      000000D0H   SFRSYM    DATA     BYTE      PSW
      0000009DH   SFRSYM    DATA     BYTE      IRCBAND
      00000097H   SFRSYM    DATA     BYTE      AUXR2
      000000EFH   SFRSYM    DATA     BYTE      AUXINTIF
      000000FDH   SFRSYM    DATA     BYTE      S4CON
      000000ACH   SFRSYM    DATA     BYTE      S3CON
      0000009AH   SFRSYM    DATA     BYTE      S2CON
      000000B7H   SFRSYM    DATA     BYTE      IPH
      000000CDH   SFRSYM    DATA     BYTE      SPSTAT
      000000DDH   SFRSYM    DATA     BYTE      T4T3M
      000000C1H   SFRSYM    DATA     BYTE      WDT_CONTR
      00000088H.6 SFRSYM    DATA     BIT       TR1
      00000088H.4 SFRSYM    DATA     BIT       TR0
      000000D3H   SFRSYM    DATA     BYTE      T4L
      000000D5H   SFRSYM    DATA     BYTE      T3L
      000000D7H   SFRSYM    DATA     BYTE      T2L
      0000008BH   SFRSYM    DATA     BYTE      TL1
      0000008AH   SFRSYM    DATA     BYTE      TL0
      000000D2H   SFRSYM    DATA     BYTE      T4H
      000000D4H   SFRSYM    DATA     BYTE      T3H
      000000D6H   SFRSYM    DATA     BYTE      T2H
      0000008DH   SFRSYM    DATA     BYTE      TH1
      0000008CH   SFRSYM    DATA     BYTE      TH0
      000000DFH   SFRSYM    DATA     BYTE      IP3
L251 LINKER/LOCATER V4.66.93.0                                                        07/31/2023  12:50:11  PAGE 42


      000000F4H   SFRSYM    DATA     BYTE      USBCON
      000000B5H   SFRSYM    DATA     BYTE      IP2
      000000FFH   SFRSYM    DATA     BYTE      RSTCFG
      000000A8H.3 SFRSYM    DATA     BIT       ET1
      000000A8H.1 SFRSYM    DATA     BIT       ET0
      000000F9H   SFRSYM    DATA     BYTE      LINICR
      0000008EH   SFRSYM    DATA     BYTE      AUXR
      000000AFH   SFRSYM    DATA     BYTE      IE2
      00000088H   SFRSYM    DATA     BYTE      TCON
      00000089H   SFRSYM    DATA     BYTE      TMOD
      00000098H   SFRSYM    DATA     BYTE      SCON
      000000F1H   SFRSYM    DATA     BYTE      CANICR
      00000087H   SFRSYM    DATA     BYTE      PCON
      000000BCH   SFRSYM    DATA     BYTE      ADC_CONTR
      000000E7H   SFRSYM    DATA     BYTE      CMPCR2
      000000E6H   SFRSYM    DATA     BYTE      CMPCR1
      000000B8H   SFRSYM    DATA     BYTE      IP
      0000008FH   SFRSYM    DATA     BYTE      INTCLKO
      000000EEH   SFRSYM    DATA     BYTE      IP3H
      000000B6H   SFRSYM    DATA     BYTE      IP2H
      000000A8H   SFRSYM    DATA     BYTE      IE
      000000BBH   SFRSYM    DATA     BYTE      P_SW3
      000000BAH   SFRSYM    DATA     BYTE      P_SW2
      000000A2H   SFRSYM    DATA     BYTE      P_SW1
      000000CEH   SFRSYM    DATA     BYTE      SPCTL
      000000F8H   SFRSYM    DATA     BYTE      P7
      000000E8H   SFRSYM    DATA     BYTE      P6
      000000C8H   SFRSYM    DATA     BYTE      P5
      000000C0H   SFRSYM    DATA     BYTE      P4
      000000B0H   SFRSYM    DATA     BYTE      P3
      000000A0H   SFRSYM    DATA     BYTE      P2
      00000090H   SFRSYM    DATA     BYTE      P1
      00000080H   SFRSYM    DATA     BYTE      P0
      00000CADH   SYMBOL    EDATA    INT       tim_n
      00000C35H   SYMBOL    EDATA    INT       tim_n
      00000C37H   SYMBOL    EDATA    WORD      dat
      00000CAFH   SYMBOL    EDATA    INT       tim_n

      00FF5BE3H   BLOCK     CODE     ---       LVL=0
      00000B55H   SYMBOL    EDATA    INT       tim_n
      00000B57H   SYMBOL    EDATA    WORD      time_ms
      00FF5BEBH   BLOCK     CODE     NEAR LAB  LVL=1
      00000B59H   SYMBOL    EDATA    WORD      temp
      ---         BLOCKEND  ---      ---       LVL=1
      00FF5BE3H   LINE      CODE     ---       #198
      00FF5BEBH   LINE      CODE     ---       #199
      00FF5BEBH   LINE      CODE     ---       #201
      00FF5C0EH   LINE      CODE     ---       #203
      00FF5C18H   LINE      CODE     ---       #205
      00FF5C1CH   LINE      CODE     ---       #206
      00FF5C22H   LINE      CODE     ---       #207
      00FF5C2CH   LINE      CODE     ---       #208
      00FF5C2FH   LINE      CODE     ---       #209
      00FF5C32H   LINE      CODE     ---       #210
      00FF5C35H   LINE      CODE     ---       #211
      00FF5C41H   LINE      CODE     ---       #213
      00FF5C45H   LINE      CODE     ---       #214
      00FF5C4BH   LINE      CODE     ---       #215
      00FF5C55H   LINE      CODE     ---       #216
      00FF5C58H   LINE      CODE     ---       #217
      00FF5C5BH   LINE      CODE     ---       #218
      00FF5C5DH   LINE      CODE     ---       #219
      00FF5C69H   LINE      CODE     ---       #221
      00FF5C6FH   LINE      CODE     ---       #222
      00FF5C79H   LINE      CODE     ---       #223
L251 LINKER/LOCATER V4.66.93.0                                                        07/31/2023  12:50:11  PAGE 43


      00FF5C7CH   LINE      CODE     ---       #224
      00FF5C7FH   LINE      CODE     ---       #225
      00FF5C81H   LINE      CODE     ---       #226
      00FF5C8DH   LINE      CODE     ---       #228
      00FF5C93H   LINE      CODE     ---       #229
      00FF5C9DH   LINE      CODE     ---       #230
      00FF5CA0H   LINE      CODE     ---       #231
      00FF5CA3H   LINE      CODE     ---       #232
      00FF5CA5H   LINE      CODE     ---       #233
      00FF5CB1H   LINE      CODE     ---       #235
      00FF5CB7H   LINE      CODE     ---       #236
      00FF5CC1H   LINE      CODE     ---       #237
      00FF5CC4H   LINE      CODE     ---       #238
      00FF5CC7H   LINE      CODE     ---       #239
      ---         BLOCKEND  ---      ---       LVL=0

      ---         MODULE    ---      ---       zf_uart
      00FF676CH   PUBLIC    CODE     ---       uart_putchar
      00FF483EH   PUBLIC    CODE     ---       uart_init
      00000BF7H   PUBLIC    EDATA    ---       busy
      000007DBH   PUBLIC    EDATA    BYTE      ?uart_init?BYTE
      000000D0H   SFRSYM    DATA     BYTE      PSW
      0000009DH   SFRSYM    DATA     BYTE      IRCBAND
      00000097H   SFRSYM    DATA     BYTE      AUXR2
      000000EFH   SFRSYM    DATA     BYTE      AUXINTIF
      000000FDH   SFRSYM    DATA     BYTE      S4CON
      000000ACH   SFRSYM    DATA     BYTE      S3CON
      0000009AH   SFRSYM    DATA     BYTE      S2CON
      000000FEH   SFRSYM    DATA     BYTE      S4BUF
      000000ADH   SFRSYM    DATA     BYTE      S3BUF
      0000009BH   SFRSYM    DATA     BYTE      S2BUF
      000000B7H   SFRSYM    DATA     BYTE      IPH
      000000CDH   SFRSYM    DATA     BYTE      SPSTAT
      000000DDH   SFRSYM    DATA     BYTE      T4T3M
      000000C1H   SFRSYM    DATA     BYTE      WDT_CONTR
      00000088H.6 SFRSYM    DATA     BIT       TR1
      000000D3H   SFRSYM    DATA     BYTE      T4L
      000000D5H   SFRSYM    DATA     BYTE      T3L
      000000D7H   SFRSYM    DATA     BYTE      T2L
      0000008BH   SFRSYM    DATA     BYTE      TL1
      000000D2H   SFRSYM    DATA     BYTE      T4H
      000000D4H   SFRSYM    DATA     BYTE      T3H
      000000D6H   SFRSYM    DATA     BYTE      T2H
      0000008DH   SFRSYM    DATA     BYTE      TH1
      000000DFH   SFRSYM    DATA     BYTE      IP3
      000000F4H   SFRSYM    DATA     BYTE      USBCON
      000000B5H   SFRSYM    DATA     BYTE      IP2
      000000FFH   SFRSYM    DATA     BYTE      RSTCFG
      000000F9H   SFRSYM    DATA     BYTE      LINICR
      0000008EH   SFRSYM    DATA     BYTE      AUXR
      000000AFH   SFRSYM    DATA     BYTE      IE2
      00000088H   SFRSYM    DATA     BYTE      TCON
      00000089H   SFRSYM    DATA     BYTE      TMOD
      00000098H   SFRSYM    DATA     BYTE      SCON
      000000F1H   SFRSYM    DATA     BYTE      CANICR
      00000087H   SFRSYM    DATA     BYTE      PCON
      00000099H   SFRSYM    DATA     BYTE      SBUF
      000000BCH   SFRSYM    DATA     BYTE      ADC_CONTR
      000000E7H   SFRSYM    DATA     BYTE      CMPCR2
      000000E6H   SFRSYM    DATA     BYTE      CMPCR1
      000000B8H   SFRSYM    DATA     BYTE      IP
      000000A8H.4 SFRSYM    DATA     BIT       ES
      0000008FH   SFRSYM    DATA     BYTE      INTCLKO
      000000EEH   SFRSYM    DATA     BYTE      IP3H
      000000B6H   SFRSYM    DATA     BYTE      IP2H
L251 LINKER/LOCATER V4.66.93.0                                                        07/31/2023  12:50:11  PAGE 44


      000000A8H   SFRSYM    DATA     BYTE      IE
      000000BBH   SFRSYM    DATA     BYTE      P_SW3
      000000BAH   SFRSYM    DATA     BYTE      P_SW2
      000000A2H   SFRSYM    DATA     BYTE      P_SW1
      000000CEH   SFRSYM    DATA     BYTE      SPCTL
      000000F8H   SFRSYM    DATA     BYTE      P7
      000000E8H   SFRSYM    DATA     BYTE      P6
      000000C8H   SFRSYM    DATA     BYTE      P5
      000000C0H   SFRSYM    DATA     BYTE      P4
      000000C9H   SFRSYM    DATA     BYTE      P5M1
      000000B0H   SFRSYM    DATA     BYTE      P3
      000000CAH   SFRSYM    DATA     BYTE      P5M0
      000000A0H   SFRSYM    DATA     BYTE      P2
      00000090H   SFRSYM    DATA     BYTE      P1
      00000080H   SFRSYM    DATA     BYTE      P0

      00FF483EH   BLOCK     CODE     ---       LVL=0
      000007DBH   SYMBOL    EDATA    INT       uart_n
      000007DDH   SYMBOL    EDATA    INT       uart_rx_pin
      000007DFH   SYMBOL    EDATA    INT       uart_tx_pin
      000007E1H   SYMBOL    EDATA    DWORD     baud
      000007E5H   SYMBOL    EDATA    INT       tim_n
      00FF484EH   BLOCK     CODE     NEAR LAB  LVL=1
      000007E7H   SYMBOL    EDATA    WORD      brt
      ---         BLOCKEND  ---      ---       LVL=1
      00FF483EH   LINE      CODE     ---       #47
      00FF484EH   LINE      CODE     ---       #48
      00FF484EH   LINE      CODE     ---       #51
      00FF4875H   LINE      CODE     ---       #54
      00FF4897H   LINE      CODE     ---       #56
      00FF4897H   LINE      CODE     ---       #58
      00FF48A3H   LINE      CODE     ---       #60
      00FF48A6H   LINE      CODE     ---       #61
      00FF48AAH   LINE      CODE     ---       #62
      00FF48B0H   LINE      CODE     ---       #63
      00FF48BAH   LINE      CODE     ---       #64
      00FF48BDH   LINE      CODE     ---       #65
      00FF48C0H   LINE      CODE     ---       #66
      00FF48C5H   LINE      CODE     ---       #67
      00FF48C7H   LINE      CODE     ---       #68
      00FF48D3H   LINE      CODE     ---       #70
      00FF48D6H   LINE      CODE     ---       #71
      00FF48DCH   LINE      CODE     ---       #72
      00FF48E6H   LINE      CODE     ---       #73
      00FF48E9H   LINE      CODE     ---       #74
      00FF48E9H   LINE      CODE     ---       #75
      00FF48ECH   LINE      CODE     ---       #76
      00FF4902H   LINE      CODE     ---       #78
      00FF4906H   LINE      CODE     ---       #79
      00FF4908H   LINE      CODE     ---       #80
      00FF4920H   LINE      CODE     ---       #82
      00FF4923H   LINE      CODE     ---       #83
      00FF4925H   LINE      CODE     ---       #84
      00FF493DH   LINE      CODE     ---       #86
      00FF4940H   LINE      CODE     ---       #87
      00FF4942H   LINE      CODE     ---       #88
      00FF495AH   LINE      CODE     ---       #90
      00FF495DH   LINE      CODE     ---       #91
      00FF495DH   LINE      CODE     ---       #92
      00FF4962H   LINE      CODE     ---       #93
      00FF4965H   LINE      CODE     ---       #94
      00FF4968H   LINE      CODE     ---       #97
      00FF4968H   LINE      CODE     ---       #99
      00FF4974H   LINE      CODE     ---       #101
      00FF4977H   LINE      CODE     ---       #102
L251 LINKER/LOCATER V4.66.93.0                                                        07/31/2023  12:50:11  PAGE 45


      00FF497DH   LINE      CODE     ---       #103
      00FF4987H   LINE      CODE     ---       #104
      00FF498AH   LINE      CODE     ---       #105
      00FF498AH   LINE      CODE     ---       #107
      00FF498DH   LINE      CODE     ---       #108
      00FF49A5H   LINE      CODE     ---       #110
      00FF49A9H   LINE      CODE     ---       #111
      00FF49ABH   LINE      CODE     ---       #112
      00FF49C3H   LINE      CODE     ---       #114
      00FF49C6H   LINE      CODE     ---       #115
      00FF49C6H   LINE      CODE     ---       #117
      00FF49C9H   LINE      CODE     ---       #118
      00FF49CEH   LINE      CODE     ---       #119
      00FF49D1H   LINE      CODE     ---       #122
      00FF49D1H   LINE      CODE     ---       #124
      00FF49DDH   LINE      CODE     ---       #126
      00FF49E0H   LINE      CODE     ---       #127
      00FF49E6H   LINE      CODE     ---       #128
      00FF49F0H   LINE      CODE     ---       #129
      00FF49F3H   LINE      CODE     ---       #130
      00FF49F5H   LINE      CODE     ---       #131
      00FF4A01H   LINE      CODE     ---       #133
      00FF4A04H   LINE      CODE     ---       #134
      00FF4A0AH   LINE      CODE     ---       #135
      00FF4A14H   LINE      CODE     ---       #136
      00FF4A17H   LINE      CODE     ---       #137
      00FF4A17H   LINE      CODE     ---       #139
      00FF4A1AH   LINE      CODE     ---       #140
      00FF4A32H   LINE      CODE     ---       #142
      00FF4A36H   LINE      CODE     ---       #143
      00FF4A38H   LINE      CODE     ---       #144
      00FF4A50H   LINE      CODE     ---       #146
      00FF4A53H   LINE      CODE     ---       #147
      00FF4A53H   LINE      CODE     ---       #149
      00FF4A56H   LINE      CODE     ---       #150
      00FF4A5BH   LINE      CODE     ---       #151
      00FF4A5EH   LINE      CODE     ---       #154
      00FF4A5EH   LINE      CODE     ---       #156
      00FF4A6AH   LINE      CODE     ---       #158
      00FF4A6DH   LINE      CODE     ---       #159
      00FF4A73H   LINE      CODE     ---       #160
      00FF4A7DH   LINE      CODE     ---       #161
      00FF4A80H   LINE      CODE     ---       #162
      00FF4A82H   LINE      CODE     ---       #163
      00FF4A8EH   LINE      CODE     ---       #165
      00FF4A91H   LINE      CODE     ---       #166
      00FF4A97H   LINE      CODE     ---       #167
      00FF4AA1H   LINE      CODE     ---       #168
      00FF4AA4H   LINE      CODE     ---       #169
      00FF4AA4H   LINE      CODE     ---       #171
      00FF4AA7H   LINE      CODE     ---       #172
      00FF4ABFH   LINE      CODE     ---       #174
      00FF4AC3H   LINE      CODE     ---       #175
      00FF4AC5H   LINE      CODE     ---       #176
      00FF4ADDH   LINE      CODE     ---       #178
      00FF4AE0H   LINE      CODE     ---       #179
      00FF4AE4H   LINE      CODE     ---       #180
      00FF4AE7H   LINE      CODE     ---       #181
      00FF4AE7H   LINE      CODE     ---       #182
      00FF4AEAH   LINE      CODE     ---       #183
      00FF4AEFH   LINE      CODE     ---       #184
      00FF4AEFH   LINE      CODE     ---       #187
      00FF4AEFH   LINE      CODE     ---       #189
      ---         BLOCKEND  ---      ---       LVL=0

L251 LINKER/LOCATER V4.66.93.0                                                        07/31/2023  12:50:11  PAGE 46


      00FF676CH   BLOCK     CODE     ---       LVL=0
      00000C71H   SYMBOL    EDATA    INT       uart_n
      00000C73H   SYMBOL    EDATA    BYTE      dat
      00FF676CH   LINE      CODE     ---       #198
      00FF6774H   LINE      CODE     ---       #200
      00FF6786H   LINE      CODE     ---       #202
      00FF6786H   LINE      CODE     ---       #203
      00FF678FH   LINE      CODE     ---       #204
      00FF6795H   LINE      CODE     ---       #205
      00FF679BH   LINE      CODE     ---       #206
      00FF679DH   LINE      CODE     ---       #207
      00FF679DH   LINE      CODE     ---       #208
      00FF67A6H   LINE      CODE     ---       #209
      00FF67ACH   LINE      CODE     ---       #210
      00FF67B2H   LINE      CODE     ---       #211
      00FF67B4H   LINE      CODE     ---       #212
      00FF67B4H   LINE      CODE     ---       #213
      00FF67BDH   LINE      CODE     ---       #214
      00FF67C3H   LINE      CODE     ---       #215
      00FF67C9H   LINE      CODE     ---       #216
      00FF67CBH   LINE      CODE     ---       #217
      00FF67CBH   LINE      CODE     ---       #218
      00FF67D4H   LINE      CODE     ---       #219
      00FF67DAH   LINE      CODE     ---       #220
      00FF67E0H   LINE      CODE     ---       #221
      00FF67E0H   LINE      CODE     ---       #222
      00FF67E0H   LINE      CODE     ---       #223
      ---         BLOCKEND  ---      ---       LVL=0
      00000AA8H   SYMBOL    EDATA    INT       uart_n
      00000AAAH   SYMBOL    EDATA    ---       p
      00000AAEH   SYMBOL    EDATA    WORD      len
      00000B5BH   SYMBOL    EDATA    INT       uart_n
      00000B5DH   SYMBOL    EDATA    ---       str

      ---         MODULE    ---      ---       zf_fifo
      00FF6930H   PUBLIC    CODE     ---       fifo_head_offset
      00FF5686H   PUBLIC    CODE     ---       fifo_write_buffer
      0000083BH   PUBLIC    EDATA    BYTE      ?fifo_init?BYTE
      000007ADH   PUBLIC    EDATA    BYTE      ?fifo_write_buffer?BYTE
      00000764H   PUBLIC    EDATA    BYTE      ?fifo_read_buffer?BYTE
      000000D0H   SFRSYM    DATA     BYTE      PSW
      0000009DH   SFRSYM    DATA     BYTE      IRCBAND
      00000097H   SFRSYM    DATA     BYTE      AUXR2
      000000EFH   SFRSYM    DATA     BYTE      AUXINTIF
      000000FDH   SFRSYM    DATA     BYTE      S4CON
      000000ACH   SFRSYM    DATA     BYTE      S3CON
      0000009AH   SFRSYM    DATA     BYTE      S2CON
      000000B7H   SFRSYM    DATA     BYTE      IPH
      000000CDH   SFRSYM    DATA     BYTE      SPSTAT
      000000DDH   SFRSYM    DATA     BYTE      T4T3M
      000000C1H   SFRSYM    DATA     BYTE      WDT_CONTR
      000000DFH   SFRSYM    DATA     BYTE      IP3
      000000F4H   SFRSYM    DATA     BYTE      USBCON
      000000B5H   SFRSYM    DATA     BYTE      IP2
      000000FFH   SFRSYM    DATA     BYTE      RSTCFG
      000000F9H   SFRSYM    DATA     BYTE      LINICR
      0000008EH   SFRSYM    DATA     BYTE      AUXR
      000000AFH   SFRSYM    DATA     BYTE      IE2
      00000088H   SFRSYM    DATA     BYTE      TCON
      00000098H   SFRSYM    DATA     BYTE      SCON
      000000F1H   SFRSYM    DATA     BYTE      CANICR
      00000087H   SFRSYM    DATA     BYTE      PCON
      000000BCH   SFRSYM    DATA     BYTE      ADC_CONTR
      000000E7H   SFRSYM    DATA     BYTE      CMPCR2
      000000E6H   SFRSYM    DATA     BYTE      CMPCR1
L251 LINKER/LOCATER V4.66.93.0                                                        07/31/2023  12:50:11  PAGE 47


      000000B8H   SFRSYM    DATA     BYTE      IP
      0000008FH   SFRSYM    DATA     BYTE      INTCLKO
      000000EEH   SFRSYM    DATA     BYTE      IP3H
      000000B6H   SFRSYM    DATA     BYTE      IP2H
      000000A8H   SFRSYM    DATA     BYTE      IE
      000000BBH   SFRSYM    DATA     BYTE      P_SW3
      000000BAH   SFRSYM    DATA     BYTE      P_SW2
      000000A2H   SFRSYM    DATA     BYTE      P_SW1
      000000CEH   SFRSYM    DATA     BYTE      SPCTL
      000000F8H   SFRSYM    DATA     BYTE      P7
      000000E8H   SFRSYM    DATA     BYTE      P6
      000000C8H   SFRSYM    DATA     BYTE      P5
      000000C0H   SFRSYM    DATA     BYTE      P4
      000000B0H   SFRSYM    DATA     BYTE      P3
      000000A0H   SFRSYM    DATA     BYTE      P2
      00000090H   SFRSYM    DATA     BYTE      P1
      00000080H   SFRSYM    DATA     BYTE      P0
      0000083BH   SYMBOL    EDATA    ---       fifo
      0000083FH   SYMBOL    EDATA    ---       buffer_addr
      00000843H   SYMBOL    EDATA    DWORD     size

      00FF6930H   BLOCK     CODE     ---       LVL=0
      00000AB0H   SYMBOL    EDATA    ---       fifo
      00000AB4H   SYMBOL    EDATA    DWORD     offset
      00FF6930H   LINE      CODE     ---       #61
      00FF6938H   LINE      CODE     ---       #63
      00FF6952H   LINE      CODE     ---       #65
      00FF6954H   LINE      CODE     ---       #67
      00FF6979H   LINE      CODE     ---       #68
      00FF6999H   LINE      CODE     ---       #69
      ---         BLOCKEND  ---      ---       LVL=0
      00000AB8H   SYMBOL    EDATA    ---       fifo
      00000ABCH   SYMBOL    EDATA    DWORD     offset
      00000C39H   SYMBOL    EDATA    ---       fifo
      00000C3DH   SYMBOL    EDATA    ---       fifo

      00FF5686H   BLOCK     CODE     ---       LVL=0
      000007ADH   SYMBOL    EDATA    ---       fifo
      000007B1H   SYMBOL    EDATA    ---       dat
      000007B5H   SYMBOL    EDATA    DWORD     length
      00FF568EH   BLOCK     CODE     NEAR LAB  LVL=1
      000007B9H   SYMBOL    EDATA    DWORD     temp_length
      ---         BLOCKEND  ---      ---       LVL=1
      00FF5686H   LINE      CODE     ---       #120
      00FF568EH   LINE      CODE     ---       #121
      00FF568EH   LINE      CODE     ---       #124
      00FF56A8H   LINE      CODE     ---       #126
      00FF56CAH   LINE      CODE     ---       #128
      00FF56D9H   LINE      CODE     ---       #130
      00FF5702H   LINE      CODE     ---       #131
      00FF570DH   LINE      CODE     ---       #132
      00FF571DH   LINE      CODE     ---       #133
      00FF5750H   LINE      CODE     ---       #134
      00FF5761H   LINE      CODE     ---       #135
      00FF5763H   LINE      CODE     ---       #138
      00FF578CH   LINE      CODE     ---       #139
      00FF5797H   LINE      CODE     ---       #140
      00FF5797H   LINE      CODE     ---       #142
      00FF57B3H   LINE      CODE     ---       #143
      00FF57B5H   LINE      CODE     ---       #146
      00FF57BBH   LINE      CODE     ---       #147
      00FF57BBH   LINE      CODE     ---       #149
      00FF57BDH   LINE      CODE     ---       #150
      ---         BLOCKEND  ---      ---       LVL=0
      00000764H   SYMBOL    EDATA    ---       fifo
L251 LINKER/LOCATER V4.66.93.0                                                        07/31/2023  12:50:11  PAGE 48


      00000768H   SYMBOL    EDATA    ---       dat
      0000076CH   SYMBOL    EDATA    ---       length
      00000770H   SYMBOL    EDATA    INT       flag
      00000772H   SYMBOL    EDATA    BYTE      data_check
      00000773H   SYMBOL    EDATA    DWORD     temp_length

      ---         MODULE    ---      ---       SEEKFREE_18TFT
      00FF5CC8H   PUBLIC    CODE     ---       lcd_showint32
      00FF6E89H   PUBLIC    CODE     ---       lcd_clear
      00FF6D21H   PUBLIC    CODE     ---       lcd_showstr
      00FF7175H   PUBLIC    CODE     ---       lcd_writeIndex_simspi
      00FF71C1H   PUBLIC    CODE     ---       lcd_writeData_simspi
      00FF7A63H   PUBLIC    CODE     ---       lcd_writeIndex
      00FF7A78H   PUBLIC    CODE     ---       lcd_writeData
      00FF6EE0H   PUBLIC    CODE     ---       lcd_writeData_16bit_simspi
      00FF6AD6H   PUBLIC    CODE     ---       lcd_set_region_simspi
      00FF6B3AH   PUBLIC    CODE     ---       lcd_set_region
      00FF4EFBH   PUBLIC    CODE     ---       lcd_init
      00FF7624H   PUBLIC    CODE     ---       lcd_writedata_16bit
      00FF5F24H   PUBLIC    CODE     ---       lcd_showchar
      0000047AH   PUBLIC    EDATA    BYTE      ?lcd_showfloat_simspi?BYTE
      000004AAH   PUBLIC    EDATA    BYTE      ?lcd_showfloat?BYTE
      000000D0H   SFRSYM    DATA     BYTE      PSW
      0000009DH   SFRSYM    DATA     BYTE      IRCBAND
      00000097H   SFRSYM    DATA     BYTE      AUXR2
      000000EFH   SFRSYM    DATA     BYTE      AUXINTIF
      000000FDH   SFRSYM    DATA     BYTE      S4CON
      000000ACH   SFRSYM    DATA     BYTE      S3CON
      0000009AH   SFRSYM    DATA     BYTE      S2CON
      000000B7H   SFRSYM    DATA     BYTE      IPH
      000000CDH   SFRSYM    DATA     BYTE      SPSTAT
      000000DDH   SFRSYM    DATA     BYTE      T4T3M
      000000C1H   SFRSYM    DATA     BYTE      WDT_CONTR
      000000DFH   SFRSYM    DATA     BYTE      IP3
      000000F4H   SFRSYM    DATA     BYTE      USBCON
      000000B5H   SFRSYM    DATA     BYTE      IP2
      000000FFH   SFRSYM    DATA     BYTE      RSTCFG
      000000F9H   SFRSYM    DATA     BYTE      LINICR
      0000008EH   SFRSYM    DATA     BYTE      AUXR
      000000AFH   SFRSYM    DATA     BYTE      IE2
      000000A0H.5 SFRSYM    DATA     BIT       P25
      00000088H   SFRSYM    DATA     BYTE      TCON
      000000A0H.3 SFRSYM    DATA     BIT       P23
      00000098H   SFRSYM    DATA     BYTE      SCON
      000000A0H.2 SFRSYM    DATA     BIT       P22
      000000A0H.1 SFRSYM    DATA     BIT       P21
      000000A0H.0 SFRSYM    DATA     BIT       P20
      000000F1H   SFRSYM    DATA     BYTE      CANICR
      00000087H   SFRSYM    DATA     BYTE      PCON
      000000BCH   SFRSYM    DATA     BYTE      ADC_CONTR
      000000E7H   SFRSYM    DATA     BYTE      CMPCR2
      000000E6H   SFRSYM    DATA     BYTE      CMPCR1
      000000B8H   SFRSYM    DATA     BYTE      IP
      0000008FH   SFRSYM    DATA     BYTE      INTCLKO
      000000EEH   SFRSYM    DATA     BYTE      IP3H
      000000B6H   SFRSYM    DATA     BYTE      IP2H
      000000A8H   SFRSYM    DATA     BYTE      IE
      000000BBH   SFRSYM    DATA     BYTE      P_SW3
      000000BAH   SFRSYM    DATA     BYTE      P_SW2
      000000A2H   SFRSYM    DATA     BYTE      P_SW1
      000000CEH   SFRSYM    DATA     BYTE      SPCTL
      000000F8H   SFRSYM    DATA     BYTE      P7
      000000E8H   SFRSYM    DATA     BYTE      P6
      000000C8H   SFRSYM    DATA     BYTE      P5
      000000C0H   SFRSYM    DATA     BYTE      P4
L251 LINKER/LOCATER V4.66.93.0                                                        07/31/2023  12:50:11  PAGE 49


      000000B0H   SFRSYM    DATA     BYTE      P3
      000000A0H   SFRSYM    DATA     BYTE      P2
      00000090H   SFRSYM    DATA     BYTE      P1
      00000080H   SFRSYM    DATA     BYTE      P0

      00FF7175H   BLOCK     CODE     ---       LVL=0
      00000CB1H   SYMBOL    EDATA    BYTE      dat
      00FF7179H   BLOCK     CODE     NEAR LAB  LVL=1
      00000CB2H   SYMBOL    EDATA    BYTE      i
      ---         BLOCKEND  ---      ---       LVL=1
      00FF7175H   LINE      CODE     ---       #60
      00FF7179H   LINE      CODE     ---       #61
      00FF7179H   LINE      CODE     ---       #62
      00FF717FH   LINE      CODE     ---       #64
      00FF7182H   LINE      CODE     ---       #65
      00FF7185H   LINE      CODE     ---       #66
      00FF7188H   LINE      CODE     ---       #68
      00FF718AH   LINE      CODE     ---       #70
      00FF7196H   LINE      CODE     ---       #71
      00FF7199H   LINE      CODE     ---       #72
      00FF719CH   LINE      CODE     ---       #74
      00FF719FH   LINE      CODE     ---       #75
      00FF71A9H   LINE      CODE     ---       #76
      00FF71BDH   LINE      CODE     ---       #77
      00FF71C0H   LINE      CODE     ---       #78
      ---         BLOCKEND  ---      ---       LVL=0

      00FF71C1H   BLOCK     CODE     ---       LVL=0
      00000CB3H   SYMBOL    EDATA    BYTE      dat
      00FF71C5H   BLOCK     CODE     NEAR LAB  LVL=1
      00000CB4H   SYMBOL    EDATA    BYTE      i
      ---         BLOCKEND  ---      ---       LVL=1
      00FF71C1H   LINE      CODE     ---       #87
      00FF71C5H   LINE      CODE     ---       #88
      00FF71C5H   LINE      CODE     ---       #89
      00FF71CBH   LINE      CODE     ---       #91
      00FF71CEH   LINE      CODE     ---       #92
      00FF71D1H   LINE      CODE     ---       #93
      00FF71D4H   LINE      CODE     ---       #94
      00FF71D6H   LINE      CODE     ---       #96
      00FF71E2H   LINE      CODE     ---       #97
      00FF71E5H   LINE      CODE     ---       #98
      00FF71E8H   LINE      CODE     ---       #100
      00FF71EBH   LINE      CODE     ---       #101
      00FF71F5H   LINE      CODE     ---       #102
      00FF7209H   LINE      CODE     ---       #103
      00FF720CH   LINE      CODE     ---       #104
      ---         BLOCKEND  ---      ---       LVL=0

      00FF6EE0H   BLOCK     CODE     ---       LVL=0
      00000C74H   SYMBOL    EDATA    WORD      dat
      00FF6EE4H   BLOCK     CODE     NEAR LAB  LVL=1
      00000C76H   SYMBOL    EDATA    BYTE      i
      ---         BLOCKEND  ---      ---       LVL=1
      00FF6EE0H   LINE      CODE     ---       #113
      00FF6EE4H   LINE      CODE     ---       #114
      00FF6EE4H   LINE      CODE     ---       #115
      00FF6EEAH   LINE      CODE     ---       #117
      00FF6EEDH   LINE      CODE     ---       #118
      00FF6EF0H   LINE      CODE     ---       #119
      00FF6EF3H   LINE      CODE     ---       #121
      00FF6EF5H   LINE      CODE     ---       #123
      00FF6F0AH   LINE      CODE     ---       #124
      00FF6F0DH   LINE      CODE     ---       #125
      00FF6F10H   LINE      CODE     ---       #127
L251 LINKER/LOCATER V4.66.93.0                                                        07/31/2023  12:50:11  PAGE 50


      00FF6F13H   LINE      CODE     ---       #128
      00FF6F1DH   LINE      CODE     ---       #129
      00FF6F31H   LINE      CODE     ---       #131
      00FF6F34H   LINE      CODE     ---       #133
      ---         BLOCKEND  ---      ---       LVL=0

      00FF6AD6H   BLOCK     CODE     ---       LVL=0
      00000AC0H   SYMBOL    EDATA    WORD      x_start
      00000AC2H   SYMBOL    EDATA    WORD      y_start
      00000AC4H   SYMBOL    EDATA    WORD      x_end
      00000AC6H   SYMBOL    EDATA    WORD      y_end
      00FF6AD6H   LINE      CODE     ---       #145
      00FF6AE6H   LINE      CODE     ---       #163
      00FF6AEBH   LINE      CODE     ---       #164
      00FF6AEFH   LINE      CODE     ---       #165
      00FF6AFCH   LINE      CODE     ---       #166
      00FF6B00H   LINE      CODE     ---       #167
      00FF6B0DH   LINE      CODE     ---       #169
      00FF6B12H   LINE      CODE     ---       #170
      00FF6B16H   LINE      CODE     ---       #171
      00FF6B23H   LINE      CODE     ---       #172
      00FF6B27H   LINE      CODE     ---       #173
      00FF6B34H   LINE      CODE     ---       #177
      00FF6B39H   LINE      CODE     ---       #178
      ---         BLOCKEND  ---      ---       LVL=0
      00000C41H   SYMBOL    EDATA    INT       color
      00000C43H   SYMBOL    EDATA    BYTE      i
      00000C44H   SYMBOL    EDATA    BYTE      j
      00000B61H   SYMBOL    EDATA    WORD      x
      00000B63H   SYMBOL    EDATA    WORD      y
      00000B65H   SYMBOL    EDATA    WORD      color
      00000AC8H   SYMBOL    EDATA    WORD      x
      00000ACAH   SYMBOL    EDATA    WORD      y
      00000ACCH   SYMBOL    EDATA    CHAR      dat
      00000ACDH   SYMBOL    EDATA    BYTE      i
      00000ACEH   SYMBOL    EDATA    BYTE      j
      00000ACFH   SYMBOL    EDATA    BYTE      temp
      0000097FH   SYMBOL    EDATA    WORD      x
      00000981H   SYMBOL    EDATA    WORD      y
      00000983H   SYMBOL    EDATA    ---       dat
      00000987H   SYMBOL    EDATA    WORD      j
      000009D9H   SYMBOL    EDATA    WORD      x
      000009DBH   SYMBOL    EDATA    WORD      y
      000009DDH   SYMBOL    EDATA    CHAR      dat
      000009DEH   SYMBOL    EDATA    ---       a
      000009E1H   SYMBOL    EDATA    BYTE      i
      000009E2H   SYMBOL    EDATA    WORD      x
      000009E4H   SYMBOL    EDATA    WORD      y
      000009E6H   SYMBOL    EDATA    BYTE      dat
      000009E7H   SYMBOL    EDATA    ---       a
      000009EAH   SYMBOL    EDATA    BYTE      i
      00000847H   SYMBOL    EDATA    WORD      x
      00000849H   SYMBOL    EDATA    WORD      y
      0000084BH   SYMBOL    EDATA    INT       dat
      0000084DH   SYMBOL    EDATA    ---       a
      00000852H   SYMBOL    EDATA    BYTE      i
      00000853H   SYMBOL    EDATA    WORD      x
      00000855H   SYMBOL    EDATA    WORD      y
      00000857H   SYMBOL    EDATA    WORD      dat
      00000859H   SYMBOL    EDATA    ---       a
      0000085EH   SYMBOL    EDATA    BYTE      i
      000005C9H   SYMBOL    EDATA    WORD      x
      000005CBH   SYMBOL    EDATA    WORD      y
      000005CDH   SYMBOL    EDATA    LONG      dat
      000005D1H   SYMBOL    EDATA    BYTE      num
L251 LINKER/LOCATER V4.66.93.0                                                        07/31/2023  12:50:11  PAGE 51


      000005D2H   SYMBOL    EDATA    ---       buff
      000005F4H   SYMBOL    EDATA    BYTE      length
      0000047AH   SYMBOL    EDATA    WORD      x
      0000047CH   SYMBOL    EDATA    WORD      y
      0000047EH   SYMBOL    EDATA    FLOAT     dat
      00000482H   SYMBOL    EDATA    BYTE      num
      00000483H   SYMBOL    EDATA    BYTE      pointnum
      00000484H   SYMBOL    EDATA    BYTE      length
      00000485H   SYMBOL    EDATA    ---       buff
      000004A7H   SYMBOL    EDATA    CHAR      start
      000004A8H   SYMBOL    EDATA    CHAR      end
      000004A9H   SYMBOL    EDATA    CHAR      point

      00FF7A63H   BLOCK     CODE     ---       LVL=0
      00000CEFH   SYMBOL    EDATA    BYTE      dat
      00FF7A63H   LINE      CODE     ---       #607
      00FF7A67H   LINE      CODE     ---       #610
      00FF7A6AH   LINE      CODE     ---       #611
      00FF7A6DH   LINE      CODE     ---       #612
      00FF7A74H   LINE      CODE     ---       #613
      00FF7A77H   LINE      CODE     ---       #614
      ---         BLOCKEND  ---      ---       LVL=0

      00FF7A78H   BLOCK     CODE     ---       LVL=0
      00000CF0H   SYMBOL    EDATA    BYTE      dat
      00FF7A78H   LINE      CODE     ---       #623
      00FF7A7CH   LINE      CODE     ---       #625
      00FF7A7FH   LINE      CODE     ---       #626
      00FF7A82H   LINE      CODE     ---       #627
      00FF7A89H   LINE      CODE     ---       #628
      00FF7A8CH   LINE      CODE     ---       #629
      ---         BLOCKEND  ---      ---       LVL=0

      00FF7624H   BLOCK     CODE     ---       LVL=0
      00000C45H   SYMBOL    EDATA    WORD      dat
      00FF7628H   BLOCK     CODE     NEAR LAB  LVL=1
      00000C47H   SYMBOL    EDATA    ---       dat1
      ---         BLOCKEND  ---      ---       LVL=1
      00FF7624H   LINE      CODE     ---       #638
      00FF7628H   LINE      CODE     ---       #639
      00FF7628H   LINE      CODE     ---       #642
      00FF762EH   LINE      CODE     ---       #643
      00FF7636H   LINE      CODE     ---       #645
      00FF7639H   LINE      CODE     ---       #646
      00FF763CH   LINE      CODE     ---       #647
      00FF7643H   LINE      CODE     ---       #648
      00FF764AH   LINE      CODE     ---       #649
      00FF764DH   LINE      CODE     ---       #651
      ---         BLOCKEND  ---      ---       LVL=0

      00FF6B3AH   BLOCK     CODE     ---       LVL=0
      00000AD0H   SYMBOL    EDATA    WORD      x_start
      00000AD2H   SYMBOL    EDATA    WORD      y_start
      00000AD4H   SYMBOL    EDATA    WORD      x_end
      00000AD6H   SYMBOL    EDATA    WORD      y_end
      00FF6B3AH   LINE      CODE     ---       #663
      00FF6B4AH   LINE      CODE     ---       #681
      00FF6B4FH   LINE      CODE     ---       #682
      00FF6B53H   LINE      CODE     ---       #683
      00FF6B60H   LINE      CODE     ---       #684
      00FF6B64H   LINE      CODE     ---       #685
      00FF6B71H   LINE      CODE     ---       #687
      00FF6B76H   LINE      CODE     ---       #688
      00FF6B7AH   LINE      CODE     ---       #689
      00FF6B87H   LINE      CODE     ---       #690
L251 LINKER/LOCATER V4.66.93.0                                                        07/31/2023  12:50:11  PAGE 52


      00FF6B8BH   LINE      CODE     ---       #691
      00FF6B98H   LINE      CODE     ---       #695
      00FF6B9DH   LINE      CODE     ---       #696
      ---         BLOCKEND  ---      ---       LVL=0

      00FF6E89H   BLOCK     CODE     ---       LVL=0
      00000C49H   SYMBOL    EDATA    INT       color
      00FF6E8DH   BLOCK     CODE     NEAR LAB  LVL=1
      00000C4BH   SYMBOL    EDATA    BYTE      i
      00000C4CH   SYMBOL    EDATA    BYTE      j
      ---         BLOCKEND  ---      ---       LVL=1
      00FF6E89H   LINE      CODE     ---       #705
      00FF6E8DH   LINE      CODE     ---       #706
      00FF6E8DH   LINE      CODE     ---       #708
      00FF6E9CH   LINE      CODE     ---       #709
      00FF6EA3H   LINE      CODE     ---       #710
      00FF6EAAH   LINE      CODE     ---       #711
      00FF6EDFH   LINE      CODE     ---       #712
      ---         BLOCKEND  ---      ---       LVL=0

      00FF4EFBH   BLOCK     CODE     ---       LVL=0
      00FF4EFBH   LINE      CODE     ---       #721
      00FF4EFBH   LINE      CODE     ---       #723
      00FF4F1BH   LINE      CODE     ---       #725
      00FF4F1EH   LINE      CODE     ---       #726
      00FF4F25H   LINE      CODE     ---       #727
      00FF4F28H   LINE      CODE     ---       #728
      00FF4F2FH   LINE      CODE     ---       #729
      00FF4F34H   LINE      CODE     ---       #730
      00FF4F3BH   LINE      CODE     ---       #732
      00FF4F40H   LINE      CODE     ---       #733
      00FF4F45H   LINE      CODE     ---       #734
      00FF4F4AH   LINE      CODE     ---       #735
      00FF4F4FH   LINE      CODE     ---       #737
      00FF4F54H   LINE      CODE     ---       #738
      00FF4F59H   LINE      CODE     ---       #739
      00FF4F5EH   LINE      CODE     ---       #740
      00FF4F63H   LINE      CODE     ---       #742
      00FF4F68H   LINE      CODE     ---       #743
      00FF4F6DH   LINE      CODE     ---       #744
      00FF4F72H   LINE      CODE     ---       #745
      00FF4F77H   LINE      CODE     ---       #746
      00FF4F7CH   LINE      CODE     ---       #747
      00FF4F81H   LINE      CODE     ---       #748
      00FF4F86H   LINE      CODE     ---       #750
      00FF4F8BH   LINE      CODE     ---       #751
      00FF4F90H   LINE      CODE     ---       #753
      00FF4F95H   LINE      CODE     ---       #754
      00FF4F9AH   LINE      CODE     ---       #755
      00FF4F9FH   LINE      CODE     ---       #756
      00FF4FA4H   LINE      CODE     ---       #757
      00FF4FA9H   LINE      CODE     ---       #758
      00FF4FAEH   LINE      CODE     ---       #760
      00FF4FB3H   LINE      CODE     ---       #761
      00FF4FB8H   LINE      CODE     ---       #762
      00FF4FBCH   LINE      CODE     ---       #764
      00FF4FC1H   LINE      CODE     ---       #765
      00FF4FC6H   LINE      CODE     ---       #766
      00FF4FCBH   LINE      CODE     ---       #767
      00FF4FD0H   LINE      CODE     ---       #768
      00FF4FD5H   LINE      CODE     ---       #769
      00FF4FDAH   LINE      CODE     ---       #771
      00FF4FDFH   LINE      CODE     ---       #772
      00FF4FE4H   LINE      CODE     ---       #774
      00FF4FE9H   LINE      CODE     ---       #783
L251 LINKER/LOCATER V4.66.93.0                                                        07/31/2023  12:50:11  PAGE 53


      00FF4FEEH   LINE      CODE     ---       #786
      00FF4FF3H   LINE      CODE     ---       #787
      00FF4FF8H   LINE      CODE     ---       #788
      00FF4FFDH   LINE      CODE     ---       #789
      00FF5002H   LINE      CODE     ---       #790
      00FF5007H   LINE      CODE     ---       #791
      00FF500CH   LINE      CODE     ---       #792
      00FF5011H   LINE      CODE     ---       #793
      00FF5016H   LINE      CODE     ---       #794
      00FF501BH   LINE      CODE     ---       #795
      00FF5020H   LINE      CODE     ---       #796
      00FF5025H   LINE      CODE     ---       #797
      00FF502AH   LINE      CODE     ---       #798
      00FF502FH   LINE      CODE     ---       #799
      00FF5033H   LINE      CODE     ---       #800
      00FF5038H   LINE      CODE     ---       #801
      00FF503DH   LINE      CODE     ---       #802
      00FF5042H   LINE      CODE     ---       #804
      00FF5047H   LINE      CODE     ---       #805
      00FF504CH   LINE      CODE     ---       #806
      00FF5051H   LINE      CODE     ---       #807
      00FF5056H   LINE      CODE     ---       #808
      00FF505BH   LINE      CODE     ---       #809
      00FF5060H   LINE      CODE     ---       #810
      00FF5065H   LINE      CODE     ---       #811
      00FF506AH   LINE      CODE     ---       #812
      00FF506FH   LINE      CODE     ---       #813
      00FF5074H   LINE      CODE     ---       #814
      00FF5079H   LINE      CODE     ---       #815
      00FF507EH   LINE      CODE     ---       #816
      00FF5083H   LINE      CODE     ---       #817
      00FF5087H   LINE      CODE     ---       #818
      00FF508CH   LINE      CODE     ---       #819
      00FF5091H   LINE      CODE     ---       #820
      00FF5096H   LINE      CODE     ---       #822
      00FF509BH   LINE      CODE     ---       #823
      00FF509FH   LINE      CODE     ---       #824
      00FF50A4H   LINE      CODE     ---       #825
      00FF50A8H   LINE      CODE     ---       #826
      00FF50ADH   LINE      CODE     ---       #828
      00FF50B2H   LINE      CODE     ---       #829
      00FF50B6H   LINE      CODE     ---       #830
      00FF50BBH   LINE      CODE     ---       #831
      00FF50BFH   LINE      CODE     ---       #832
      00FF50C4H   LINE      CODE     ---       #834
      00FF50C9H   LINE      CODE     ---       #835
      00FF50CEH   LINE      CODE     ---       #836
      00FF50D3H   LINE      CODE     ---       #837
      00FF50D7H   LINE      CODE     ---       #839
      00FF50DCH   LINE      CODE     ---       #840
      00FF50E1H   LINE      CODE     ---       #841
      00FF50E6H   LINE      CODE     ---       #843
      00FF50EBH   LINE      CODE     ---       #844
      ---         BLOCKEND  ---      ---       LVL=0
      00000B67H   SYMBOL    EDATA    WORD      x
      00000B69H   SYMBOL    EDATA    WORD      y
      00000B6BH   SYMBOL    EDATA    WORD      color

      00FF5F24H   BLOCK     CODE     ---       LVL=0
      00000AD8H   SYMBOL    EDATA    WORD      x
      00000ADAH   SYMBOL    EDATA    WORD      y
      00000ADCH   SYMBOL    EDATA    CHAR      dat
      00FF5F30H   BLOCK     CODE     NEAR LAB  LVL=1
      00000ADDH   SYMBOL    EDATA    BYTE      i
      00000ADEH   SYMBOL    EDATA    BYTE      j
L251 LINKER/LOCATER V4.66.93.0                                                        07/31/2023  12:50:11  PAGE 54


      00000ADFH   SYMBOL    EDATA    BYTE      temp
      ---         BLOCKEND  ---      ---       LVL=1
      00FF5F24H   LINE      CODE     ---       #872
      00FF5F30H   LINE      CODE     ---       #873
      00FF5F30H   LINE      CODE     ---       #877
      00FF5F38H   LINE      CODE     ---       #879
      00FF5F61H   LINE      CODE     ---       #880
      00FF5F89H   LINE      CODE     ---       #881
      00FF5F90H   LINE      CODE     ---       #883
      00FF5FA0H   LINE      CODE     ---       #884
      00FF5FA5H   LINE      CODE     ---       #885
      00FF5FAFH   LINE      CODE     ---       #886
      00FF5FC6H   LINE      CODE     ---       #887
      00FF5FE0H   LINE      CODE     ---       #888
      ---         BLOCKEND  ---      ---       LVL=0

      00FF6D21H   BLOCK     CODE     ---       LVL=0
      00000989H   SYMBOL    EDATA    WORD      x
      0000098BH   SYMBOL    EDATA    WORD      y
      0000098DH   SYMBOL    EDATA    ---       dat
      00FF6D2DH   BLOCK     CODE     NEAR LAB  LVL=1
      00000991H   SYMBOL    EDATA    WORD      j
      ---         BLOCKEND  ---      ---       LVL=1
      00FF6D21H   LINE      CODE     ---       #899
      00FF6D2DH   LINE      CODE     ---       #900
      00FF6D2DH   LINE      CODE     ---       #903
      00FF6D33H   LINE      CODE     ---       #904
      00FF6D35H   LINE      CODE     ---       #906
      00FF6D5FH   LINE      CODE     ---       #907
      00FF6D6DH   LINE      CODE     ---       #908
      00FF6D7DH   LINE      CODE     ---       #909
      ---         BLOCKEND  ---      ---       LVL=0
      000009EBH   SYMBOL    EDATA    WORD      x
      000009EDH   SYMBOL    EDATA    WORD      y
      000009EFH   SYMBOL    EDATA    CHAR      dat
      000009F0H   SYMBOL    EDATA    ---       a
      000009F3H   SYMBOL    EDATA    BYTE      i
      000009F4H   SYMBOL    EDATA    WORD      x
      000009F6H   SYMBOL    EDATA    WORD      y
      000009F8H   SYMBOL    EDATA    BYTE      dat
      000009F9H   SYMBOL    EDATA    ---       a
      000009FCH   SYMBOL    EDATA    BYTE      i
      0000085FH   SYMBOL    EDATA    WORD      x
      00000861H   SYMBOL    EDATA    WORD      y
      00000863H   SYMBOL    EDATA    INT       dat
      00000865H   SYMBOL    EDATA    ---       a
      0000086AH   SYMBOL    EDATA    BYTE      i
      0000086BH   SYMBOL    EDATA    WORD      x
      0000086DH   SYMBOL    EDATA    WORD      y
      0000086FH   SYMBOL    EDATA    WORD      dat
      00000871H   SYMBOL    EDATA    ---       a
      00000876H   SYMBOL    EDATA    BYTE      i

      00FF5CC8H   BLOCK     CODE     ---       LVL=0
      000005F5H   SYMBOL    EDATA    WORD      x
      000005F7H   SYMBOL    EDATA    WORD      y
      000005F9H   SYMBOL    EDATA    LONG      dat
      000005FDH   SYMBOL    EDATA    BYTE      num
      00FF5CD8H   BLOCK     CODE     NEAR LAB  LVL=1
      000005FEH   SYMBOL    EDATA    ---       buff
      00000620H   SYMBOL    EDATA    BYTE      length
      ---         BLOCKEND  ---      ---       LVL=1
      00FF5CC8H   LINE      CODE     ---       #1041
      00FF5CD8H   LINE      CODE     ---       #1042
      00FF5CD8H   LINE      CODE     ---       #1046
L251 LINKER/LOCATER V4.66.93.0                                                        07/31/2023  12:50:11  PAGE 55


      00FF5CE8H   LINE      CODE     ---       #1048
      00FF5CF5H   LINE      CODE     ---       #1049
      00FF5D1CH   LINE      CODE     ---       #1052
      00FF5D22H   LINE      CODE     ---       #1053
      00FF5D3DH   LINE      CODE     ---       #1054
      00FF5D4AH   LINE      CODE     ---       #1055
      00FF5D4AH   LINE      CODE     ---       #1056
      00FF5D4CH   LINE      CODE     ---       #1058
      00FF5D5DH   LINE      CODE     ---       #1059
      00FF5D6AH   LINE      CODE     ---       #1060
      00FF5D76H   LINE      CODE     ---       #1061
      00FF5D86H   LINE      CODE     ---       #1063
      00FF5D95H   LINE      CODE     ---       #1064
      ---         BLOCKEND  ---      ---       LVL=0
      000004AAH   SYMBOL    EDATA    WORD      x
      000004ACH   SYMBOL    EDATA    WORD      y
      000004AEH   SYMBOL    EDATA    FLOAT     dat
      000004B2H   SYMBOL    EDATA    BYTE      num
      000004B3H   SYMBOL    EDATA    BYTE      pointnum
      000004B4H   SYMBOL    EDATA    BYTE      length
      000004B5H   SYMBOL    EDATA    ---       buff
      000004D7H   SYMBOL    EDATA    CHAR      start
      000004D8H   SYMBOL    EDATA    CHAR      end
      000004D9H   SYMBOL    EDATA    CHAR      point
      00000877H   SYMBOL    EDATA    ---       p
      0000087BH   SYMBOL    EDATA    INT       i
      0000087DH   SYMBOL    EDATA    INT       j
      0000087FH   SYMBOL    EDATA    INT       k
      00000881H   SYMBOL    EDATA    BYTE      picH
      00000882H   SYMBOL    EDATA    BYTE      picL

      ---         MODULE    ---      ---       SEEKFREE_BLUETOOTH_CH9141
      00FF79B5H   PUBLIC    CODE     ---       bluetooth_ch9141_uart_callback
      000000D0H   SFRSYM    DATA     BYTE      PSW
      0000009DH   SFRSYM    DATA     BYTE      IRCBAND
      00000097H   SFRSYM    DATA     BYTE      AUXR2
      000000EFH   SFRSYM    DATA     BYTE      AUXINTIF
      000000FDH   SFRSYM    DATA     BYTE      S4CON
      000000ACH   SFRSYM    DATA     BYTE      S3CON
      0000009AH   SFRSYM    DATA     BYTE      S2CON
      000000FEH   SFRSYM    DATA     BYTE      S4BUF
      000000B7H   SFRSYM    DATA     BYTE      IPH
      000000CDH   SFRSYM    DATA     BYTE      SPSTAT
      000000DDH   SFRSYM    DATA     BYTE      T4T3M
      000000C1H   SFRSYM    DATA     BYTE      WDT_CONTR
      000000DFH   SFRSYM    DATA     BYTE      IP3
      000000F4H   SFRSYM    DATA     BYTE      USBCON
      000000B5H   SFRSYM    DATA     BYTE      IP2
      000000FFH   SFRSYM    DATA     BYTE      RSTCFG
      000000F9H   SFRSYM    DATA     BYTE      LINICR
      0000008EH   SFRSYM    DATA     BYTE      AUXR
      000000AFH   SFRSYM    DATA     BYTE      IE2
      00000080H.7 SFRSYM    DATA     BIT       P07
      00000088H   SFRSYM    DATA     BYTE      TCON
      00000098H   SFRSYM    DATA     BYTE      SCON
      000000F1H   SFRSYM    DATA     BYTE      CANICR
      00000087H   SFRSYM    DATA     BYTE      PCON
      000000BCH   SFRSYM    DATA     BYTE      ADC_CONTR
      000000E7H   SFRSYM    DATA     BYTE      CMPCR2
      000000E6H   SFRSYM    DATA     BYTE      CMPCR1
      000000B8H   SFRSYM    DATA     BYTE      IP
      0000008FH   SFRSYM    DATA     BYTE      INTCLKO
      000000EEH   SFRSYM    DATA     BYTE      IP3H
      000000B6H   SFRSYM    DATA     BYTE      IP2H
      000000A8H   SFRSYM    DATA     BYTE      IE
L251 LINKER/LOCATER V4.66.93.0                                                        07/31/2023  12:50:11  PAGE 56


      000000BBH   SFRSYM    DATA     BYTE      P_SW3
      000000BAH   SFRSYM    DATA     BYTE      P_SW2
      000000A2H   SFRSYM    DATA     BYTE      P_SW1
      000000CEH   SFRSYM    DATA     BYTE      SPCTL
      000000F8H   SFRSYM    DATA     BYTE      P7
      000000E8H   SFRSYM    DATA     BYTE      P6
      000000C8H   SFRSYM    DATA     BYTE      P5
      000000C0H   SFRSYM    DATA     BYTE      P4
      000000B0H   SFRSYM    DATA     BYTE      P3
      000000A0H   SFRSYM    DATA     BYTE      P2
      00000090H   SFRSYM    DATA     BYTE      P1
      00000080H   SFRSYM    DATA     BYTE      P0
      0000037BH   SYMBOL    EDATA    ---       bluetooth_ch9141_buffer
      000003BBH   SYMBOL    EDATA    BYTE      bluetooth_ch9141_data
      000003BCH   SYMBOL    EDATA    ---       bluetooth_ch9141_fifo

      00FF79B5H   BLOCK     CODE     ---       LVL=0
      00FF79B5H   LINE      CODE     ---       #67
      00FF79B5H   LINE      CODE     ---       #70
      00FF79BBH   LINE      CODE     ---       #71
      00FF79CEH   LINE      CODE     ---       #72
      ---         BLOCKEND  ---      ---       LVL=0
      00000993H   SYMBOL    EDATA    ---       buff
      00000997H   SYMBOL    EDATA    DWORD     len
      0000099BH   SYMBOL    EDATA    WORD      time_count
      00000883H   SYMBOL    EDATA    ---       buff
      00000887H   SYMBOL    EDATA    DWORD     len
      0000088BH   SYMBOL    EDATA    DWORD     data_len

      ---         MODULE    ---      ---       SEEKFREE_DL1A
      00000C77H   PUBLIC    EDATA    WORD      dl1a_distance_mm
      00000C79H   PUBLIC    EDATA    BYTE      dl1a_finsh_flag
      000000D0H   SFRSYM    DATA     BYTE      PSW
      0000009DH   SFRSYM    DATA     BYTE      IRCBAND
      00000097H   SFRSYM    DATA     BYTE      AUXR2
      000000EFH   SFRSYM    DATA     BYTE      AUXINTIF
      000000FDH   SFRSYM    DATA     BYTE      S4CON
      000000ACH   SFRSYM    DATA     BYTE      S3CON
      0000009AH   SFRSYM    DATA     BYTE      S2CON
      000000B7H   SFRSYM    DATA     BYTE      IPH
      000000CDH   SFRSYM    DATA     BYTE      SPSTAT
      000000DDH   SFRSYM    DATA     BYTE      T4T3M
      000000C1H   SFRSYM    DATA     BYTE      WDT_CONTR
      000000DFH   SFRSYM    DATA     BYTE      IP3
      000000F4H   SFRSYM    DATA     BYTE      USBCON
      000000B5H   SFRSYM    DATA     BYTE      IP2
      000000FFH   SFRSYM    DATA     BYTE      RSTCFG
      000000F9H   SFRSYM    DATA     BYTE      LINICR
      0000008EH   SFRSYM    DATA     BYTE      AUXR
      000000AFH   SFRSYM    DATA     BYTE      IE2
      000000C0H.7 SFRSYM    DATA     BIT       P47
      000000E8H.5 SFRSYM    DATA     BIT       P65
      000000E8H.3 SFRSYM    DATA     BIT       P63
      00000088H   SFRSYM    DATA     BYTE      TCON
      00000098H   SFRSYM    DATA     BYTE      SCON
      000000F1H   SFRSYM    DATA     BYTE      CANICR
      00000087H   SFRSYM    DATA     BYTE      PCON
      000000BCH   SFRSYM    DATA     BYTE      ADC_CONTR
      000000E7H   SFRSYM    DATA     BYTE      CMPCR2
      000000E6H   SFRSYM    DATA     BYTE      CMPCR1
      000000B8H   SFRSYM    DATA     BYTE      IP
      0000008FH   SFRSYM    DATA     BYTE      INTCLKO
      000000EEH   SFRSYM    DATA     BYTE      IP3H
      000000B6H   SFRSYM    DATA     BYTE      IP2H
      000000A8H   SFRSYM    DATA     BYTE      IE
L251 LINKER/LOCATER V4.66.93.0                                                        07/31/2023  12:50:11  PAGE 57


      000000BBH   SFRSYM    DATA     BYTE      P_SW3
      000000BAH   SFRSYM    DATA     BYTE      P_SW2
      000000A2H   SFRSYM    DATA     BYTE      P_SW1
      000000CEH   SFRSYM    DATA     BYTE      SPCTL
      000000F8H   SFRSYM    DATA     BYTE      P7
      000000E8H   SFRSYM    DATA     BYTE      P6
      000000C8H   SFRSYM    DATA     BYTE      P5
      000000C0H   SFRSYM    DATA     BYTE      P4
      000000B0H   SFRSYM    DATA     BYTE      P3
      000000A0H   SFRSYM    DATA     BYTE      P2
      00000090H   SFRSYM    DATA     BYTE      P1
      00000080H   SFRSYM    DATA     BYTE      P0
      00FF76CBH   SYMBOL    CODE     ---       dl1a_simiic_sendack
      00FF7085H   SYMBOL    CODE     ---       dl1a_timeout_microseconds_to_mclks
      00FF7032H   SYMBOL    CODE     ---       dl1a_timeout_mclks_to_microseconds
      00FF699AH   SYMBOL    CODE     ---       dl1a_read_ch
      00FF764EH   SYMBOL    CODE     ---       dl1a_decode_timeout
      00FF733CH   SYMBOL    CODE     ---       dl1a_send_ch
      00FF65FAH   SYMBOL    CODE     ---       dl1a_encode_timeout
      00FF6452H   SYMBOL    CODE     ---       dl1a_get_sequence_step_enables
      00FF77FCH   SYMBOL    CODE     ---       dl1a_sccb_waitack
      00FF0026H   SYMBOL    CODE     ---       dl1a_simiic_delay
      00FF527EH   SYMBOL    CODE     ---       dl1a_get_sequence_step_timeouts
      00FF7ACCH   SYMBOL    CODE     ---       dl1a_simiic_start
      00FF6A6EH   SYMBOL    CODE     ---       dl1a_simiic_read_regs
      00FF745BH   SYMBOL    CODE     ---       dl1a_simiic_write_dats
      00FF7A37H   SYMBOL    CODE     ---       dl1a_simiic_stop
      00FF6679H   SYMBOL    CODE     ---       dl1a_get_vcsel_pulse_period

      00FF0026H   BLOCK     CODE     ---       LVL=0
      00000CB5H   SYMBOL    EDATA    WORD      j
      00FF0026H   LINE      CODE     ---       #59
      00FF0026H   LINE      CODE     ---       #60
      00FF0026H   LINE      CODE     ---       #61
      00FF002CH   LINE      CODE     ---       #62
      00FF0042H   LINE      CODE     ---       #63
      ---         BLOCKEND  ---      ---       LVL=0

      00FF7ACCH   BLOCK     CODE     ---       LVL=0
      00FF7ACCH   LINE      CODE     ---       #66
      00FF7ACCH   LINE      CODE     ---       #68
      00FF7ACFH   LINE      CODE     ---       #69
      00FF7AD2H   LINE      CODE     ---       #70
      00FF7AD5H   LINE      CODE     ---       #71
      00FF7AD8H   LINE      CODE     ---       #72
      00FF7ADBH   LINE      CODE     ---       #73
      00FF7ADEH   LINE      CODE     ---       #74
      ---         BLOCKEND  ---      ---       LVL=0

      00FF7A37H   BLOCK     CODE     ---       LVL=0
      00FF7A37H   LINE      CODE     ---       #77
      00FF7A37H   LINE      CODE     ---       #79
      00FF7A3AH   LINE      CODE     ---       #80
      00FF7A3DH   LINE      CODE     ---       #81
      00FF7A40H   LINE      CODE     ---       #82
      00FF7A43H   LINE      CODE     ---       #83
      00FF7A46H   LINE      CODE     ---       #84
      00FF7A49H   LINE      CODE     ---       #85
      00FF7A4CH   LINE      CODE     ---       #86
      ---         BLOCKEND  ---      ---       LVL=0

      00FF76CBH   BLOCK     CODE     ---       LVL=0
      00000CF1H   SYMBOL    EDATA    BYTE      ack_dat
      00FF76CBH   LINE      CODE     ---       #90
      00FF76CFH   LINE      CODE     ---       #92
L251 LINKER/LOCATER V4.66.93.0                                                        07/31/2023  12:50:11  PAGE 58


      00FF76D2H   LINE      CODE     ---       #93
      00FF76D5H   LINE      CODE     ---       #94
      00FF76E3H   LINE      CODE     ---       #95
      00FF76E6H   LINE      CODE     ---       #97
      00FF76E9H   LINE      CODE     ---       #98
      00FF76ECH   LINE      CODE     ---       #99
      00FF76EFH   LINE      CODE     ---       #100
      00FF76F2H   LINE      CODE     ---       #101
      ---         BLOCKEND  ---      ---       LVL=0

      00FF77FCH   BLOCK     CODE     ---       LVL=0
      00FF77FCH   LINE      CODE     ---       #104
      00FF77FCH   LINE      CODE     ---       #106
      00FF77FFH   LINE      CODE     ---       #108
      00FF7802H   LINE      CODE     ---       #110
      00FF7805H   LINE      CODE     ---       #111
      00FF7808H   LINE      CODE     ---       #113
      00FF780BH   LINE      CODE     ---       #116
      00FF780EH   LINE      CODE     ---       #117
      00FF7812H   LINE      CODE     ---       #118
      00FF7812H   LINE      CODE     ---       #120
      00FF7815H   LINE      CODE     ---       #121
      00FF7818H   LINE      CODE     ---       #122
      00FF781CH   LINE      CODE     ---       #123
      ---         BLOCKEND  ---      ---       LVL=0

      00FF733CH   BLOCK     CODE     ---       LVL=0
      00000CB7H   SYMBOL    EDATA    BYTE      c
      00FF7340H   BLOCK     CODE     NEAR LAB  LVL=1
      00000CB8H   SYMBOL    EDATA    BYTE      i
      ---         BLOCKEND  ---      ---       LVL=1
      00FF733CH   LINE      CODE     ---       #129
      00FF7340H   LINE      CODE     ---       #130
      00FF7340H   LINE      CODE     ---       #131
      00FF7346H   LINE      CODE     ---       #132
      00FF7348H   LINE      CODE     ---       #134
      00FF7354H   LINE      CODE     ---       #135
      00FF7357H   LINE      CODE     ---       #136
      00FF7361H   LINE      CODE     ---       #137
      00FF7364H   LINE      CODE     ---       #138
      00FF7367H   LINE      CODE     ---       #139
      00FF736AH   LINE      CODE     ---       #140
      00FF736DH   LINE      CODE     ---       #141
      00FF7381H   LINE      CODE     ---       #142
      00FF7384H   LINE      CODE     ---       #143
      ---         BLOCKEND  ---      ---       LVL=0

      00FF699AH   BLOCK     CODE     ---       LVL=0
      00000C7AH   SYMBOL    EDATA    BYTE      ack_x
      00FF699EH   BLOCK     CODE     NEAR LAB  LVL=1
      00000C7BH   SYMBOL    EDATA    BYTE      i
      00000C7CH   SYMBOL    EDATA    BYTE      c
      ---         BLOCKEND  ---      ---       LVL=1
      00FF699AH   LINE      CODE     ---       #149
      00FF699EH   LINE      CODE     ---       #150
      00FF699EH   LINE      CODE     ---       #153
      00FF69A3H   LINE      CODE     ---       #154
      00FF69A6H   LINE      CODE     ---       #155
      00FF69A9H   LINE      CODE     ---       #156
      00FF69ACH   LINE      CODE     ---       #158
      00FF69B3H   LINE      CODE     ---       #160
      00FF69B6H   LINE      CODE     ---       #161
      00FF69B9H   LINE      CODE     ---       #162
      00FF69BCH   LINE      CODE     ---       #163
      00FF69BFH   LINE      CODE     ---       #164
L251 LINKER/LOCATER V4.66.93.0                                                        07/31/2023  12:50:11  PAGE 59


      00FF69C2H   LINE      CODE     ---       #165
      00FF69CCH   LINE      CODE     ---       #166
      00FF69CFH   LINE      CODE     ---       #168
      00FF69DBH   LINE      CODE     ---       #169
      00FF69F2H   LINE      CODE     ---       #172
      00FF69F5H   LINE      CODE     ---       #173
      00FF69F8H   LINE      CODE     ---       #174
      00FF69FFH   LINE      CODE     ---       #176
      00FF6A03H   LINE      CODE     ---       #177
      ---         BLOCKEND  ---      ---       LVL=0

      00FF745BH   BLOCK     CODE     ---       LVL=0
      000009FDH   SYMBOL    EDATA    BYTE      dev_add
      000009FEH   SYMBOL    EDATA    ---       dat
      00000A02H   SYMBOL    EDATA    DWORD     len
      00FF745BH   LINE      CODE     ---       #189
      00FF7467H   LINE      CODE     ---       #191
      00FF746AH   LINE      CODE     ---       #192
      00FF7473H   LINE      CODE     ---       #193
      00FF7475H   LINE      CODE     ---       #195
      00FF7485H   LINE      CODE     ---       #196
      00FF7499H   LINE      CODE     ---       #199
      00FF749CH   LINE      CODE     ---       #200
      ---         BLOCKEND  ---      ---       LVL=0
      00000C7DH   SYMBOL    EDATA    BYTE      dev_add
      00000C7EH   SYMBOL    EDATA    BYTE      reg
      00000C7FH   SYMBOL    EDATA    BYTE      dat
      00000C80H   SYMBOL    EDATA    BYTE      dev_add
      00000C81H   SYMBOL    EDATA    BYTE      reg
      00000C82H   SYMBOL    EDATA    BYTE      dat

      00FF6A6EH   BLOCK     CODE     ---       LVL=0
      0000099DH   SYMBOL    EDATA    BYTE      dev_add
      0000099EH   SYMBOL    EDATA    BYTE      reg
      0000099FH   SYMBOL    EDATA    ---       dat_add
      000009A3H   SYMBOL    EDATA    DWORD     num
      00FF6A6EH   LINE      CODE     ---       #257
      00FF6A7AH   LINE      CODE     ---       #259
      00FF6A7DH   LINE      CODE     ---       #260
      00FF6A86H   LINE      CODE     ---       #261
      00FF6A8DH   LINE      CODE     ---       #264
      00FF6A90H   LINE      CODE     ---       #265
      00FF6A9DH   LINE      CODE     ---       #266
      00FF6A9FH   LINE      CODE     ---       #268
      00FF6AABH   LINE      CODE     ---       #269
      00FF6AB5H   LINE      CODE     ---       #270
      00FF6AC7H   LINE      CODE     ---       #271
      00FF6AD2H   LINE      CODE     ---       #272
      00FF6AD5H   LINE      CODE     ---       #273
      ---         BLOCKEND  ---      ---       LVL=0
      000009A7H   SYMBOL    EDATA    BYTE      dev_add
      000009A8H   SYMBOL    EDATA    BYTE      reg
      000009A9H   SYMBOL    EDATA    ---       dat_add
      000009ADH   SYMBOL    EDATA    DWORD     num
      0000088FH   SYMBOL    EDATA    ---       index
      00000893H   SYMBOL    EDATA    ---       type_is_aperture
      00000897H   SYMBOL    EDATA    BYTE      tmp
      00000898H   SYMBOL    EDATA    BYTE      return_state
      00000899H   SYMBOL    EDATA    WORD      loop_count

      00FF7032H   BLOCK     CODE     ---       LVL=0
      00000B1FH   SYMBOL    EDATA    WORD      timeout_period_mclks
      00000B21H   SYMBOL    EDATA    BYTE      vcsel_period_pclks
      00FF703AH   BLOCK     CODE     NEAR LAB  LVL=1
      00000B22H   SYMBOL    EDATA    DWORD     macro_period_ns
L251 LINKER/LOCATER V4.66.93.0                                                        07/31/2023  12:50:11  PAGE 60


      ---         BLOCKEND  ---      ---       LVL=1
      00FF7032H   LINE      CODE     ---       #401
      00FF703AH   LINE      CODE     ---       #402
      00FF703AH   LINE      CODE     ---       #403
      00FF7061H   LINE      CODE     ---       #405
      00FF7084H   LINE      CODE     ---       #406
      ---         BLOCKEND  ---      ---       LVL=0

      00FF7085H   BLOCK     CODE     ---       LVL=0
      00000A06H   SYMBOL    EDATA    DWORD     timeout_period_us
      00000A0AH   SYMBOL    EDATA    BYTE      vcsel_period_pclks
      00FF708DH   BLOCK     CODE     NEAR LAB  LVL=1
      00000A0BH   SYMBOL    EDATA    DWORD     macro_period_ns
      ---         BLOCKEND  ---      ---       LVL=1
      00FF7085H   LINE      CODE     ---       #416
      00FF708DH   LINE      CODE     ---       #417
      00FF708DH   LINE      CODE     ---       #418
      00FF70B4H   LINE      CODE     ---       #420
      00FF70D5H   LINE      CODE     ---       #421
      ---         BLOCKEND  ---      ---       LVL=0

      00FF764EH   BLOCK     CODE     ---       LVL=0
      00000CB9H   SYMBOL    EDATA    WORD      reg_val
      00FF764EH   LINE      CODE     ---       #430
      00FF7652H   LINE      CODE     ---       #433
      00FF7677H   LINE      CODE     ---       #435
      ---         BLOCKEND  ---      ---       LVL=0

      00FF65FAH   BLOCK     CODE     ---       LVL=0
      000009B1H   SYMBOL    EDATA    WORD      timeout_mclks
      00FF65FEH   BLOCK     CODE     NEAR LAB  LVL=1
      000009B3H   SYMBOL    EDATA    DWORD     ls_byte
      000009B7H   SYMBOL    EDATA    WORD      ms_byte
      000009B9H   SYMBOL    EDATA    WORD      return_data
      ---         BLOCKEND  ---      ---       LVL=1
      00FF65FAH   LINE      CODE     ---       #444
      00FF65FEH   LINE      CODE     ---       #445
      00FF65FEH   LINE      CODE     ---       #446
      00FF6604H   LINE      CODE     ---       #447
      00FF660AH   LINE      CODE     ---       #448
      00FF6610H   LINE      CODE     ---       #450
      00FF661AH   LINE      CODE     ---       #453
      00FF662AH   LINE      CODE     ---       #454
      00FF662CH   LINE      CODE     ---       #456
      00FF663DH   LINE      CODE     ---       #457
      00FF664BH   LINE      CODE     ---       #458
      00FF665CH   LINE      CODE     ---       #459
      00FF6674H   LINE      CODE     ---       #460
      00FF6674H   LINE      CODE     ---       #461
      00FF6678H   LINE      CODE     ---       #462
      ---         BLOCKEND  ---      ---       LVL=0

      00FF6452H   BLOCK     CODE     ---       LVL=0
      00000BFCH   SYMBOL    EDATA    ---       enables
      00FF6456H   BLOCK     CODE     NEAR LAB  LVL=1
      00000C00H   SYMBOL    EDATA    BYTE      sequence_config
      ---         BLOCKEND  ---      ---       LVL=1
      00FF6452H   LINE      CODE     ---       #471
      00FF6456H   LINE      CODE     ---       #472
      00FF6456H   LINE      CODE     ---       #473
      00FF645BH   LINE      CODE     ---       #474
      00FF646FH   LINE      CODE     ---       #476
      00FF6483H   LINE      CODE     ---       #477
      00FF649AH   LINE      CODE     ---       #478
      00FF64B0H   LINE      CODE     ---       #479
L251 LINKER/LOCATER V4.66.93.0                                                        07/31/2023  12:50:11  PAGE 61


      00FF64C9H   LINE      CODE     ---       #480
      00FF64DFH   LINE      CODE     ---       #481
      ---         BLOCKEND  ---      ---       LVL=0

      00FF6679H   BLOCK     CODE     ---       LVL=0
      00000C83H   SYMBOL    EDATA    INT       type
      00FF667DH   BLOCK     CODE     NEAR LAB  LVL=1
      00000C85H   SYMBOL    EDATA    BYTE      data_buffer
      ---         BLOCKEND  ---      ---       LVL=1
      00FF6679H   LINE      CODE     ---       #490
      00FF667DH   LINE      CODE     ---       #491
      00FF667DH   LINE      CODE     ---       #492
      00FF6682H   LINE      CODE     ---       #493
      00FF668CH   LINE      CODE     ---       #495
      00FF66A0H   LINE      CODE     ---       #496
      00FF66B2H   LINE      CODE     ---       #497
      00FF66B4H   LINE      CODE     ---       #498
      00FF66C0H   LINE      CODE     ---       #500
      00FF66D4H   LINE      CODE     ---       #501
      00FF66E6H   LINE      CODE     ---       #502
      00FF66E8H   LINE      CODE     ---       #505
      00FF66EEH   LINE      CODE     ---       #506
      00FF66EEH   LINE      CODE     ---       #507
      00FF66F2H   LINE      CODE     ---       #508
      ---         BLOCKEND  ---      ---       LVL=0

      00FF527EH   BLOCK     CODE     ---       LVL=0
      0000089BH   SYMBOL    EDATA    ---       enables
      0000089FH   SYMBOL    EDATA    ---       timeouts
      00FF5286H   BLOCK     CODE     NEAR LAB  LVL=1
      000008A3H   SYMBOL    EDATA    ---       reg_buffer
      000008A5H   SYMBOL    EDATA    WORD      reg16_buffer
      ---         BLOCKEND  ---      ---       LVL=1
      00FF527EH   LINE      CODE     ---       #518
      00FF5286H   LINE      CODE     ---       #519
      00FF5286H   LINE      CODE     ---       #521
      00FF528CH   LINE      CODE     ---       #523
      00FF529AH   LINE      CODE     ---       #525
      00FF52AEH   LINE      CODE     ---       #526
      00FF52C3H   LINE      CODE     ---       #527
      00FF52E7H   LINE      CODE     ---       #529
      00FF52FBH   LINE      CODE     ---       #530
      00FF5311H   LINE      CODE     ---       #531
      00FF5321H   LINE      CODE     ---       #532
      00FF5347H   LINE      CODE     ---       #534
      00FF5359H   LINE      CODE     ---       #536
      00FF536DH   LINE      CODE     ---       #537
      00FF5383H   LINE      CODE     ---       #538
      00FF5393H   LINE      CODE     ---       #540
      00FF53A3H   LINE      CODE     ---       #542
      00FF53BEH   LINE      CODE     ---       #543
      00FF53BEH   LINE      CODE     ---       #545
      00FF53E6H   LINE      CODE     ---       #546
      ---         BLOCKEND  ---      ---       LVL=0
      00000C01H   SYMBOL    EDATA    BYTE      vhv_init_byte
      00000C02H   SYMBOL    EDATA    BYTE      return_state
      00000C03H   SYMBOL    EDATA    BYTE      data_buffer
      00000C04H   SYMBOL    EDATA    WORD      loop_count
      0000059AH   SYMBOL    EDATA    DWORD     budget_us
      0000059EH   SYMBOL    EDATA    BYTE      return_state
      0000059FH   SYMBOL    EDATA    ---       data_buffer
      000005A2H   SYMBOL    EDATA    WORD      dat
      000005A4H   SYMBOL    EDATA    DWORD     used_budget_us
      000005A8H   SYMBOL    EDATA    DWORD     final_range_timeout_us
      000005ACH   SYMBOL    EDATA    WORD      final_range_timeout_mclks
L251 LINKER/LOCATER V4.66.93.0                                                        07/31/2023  12:50:11  PAGE 62


      000005AEH   SYMBOL    EDATA    ---       enables
      000005B3H   SYMBOL    EDATA    ---       timeouts
      000006D1H   SYMBOL    EDATA    ---       enables
      000006D6H   SYMBOL    EDATA    ---       timeouts
      000006ECH   SYMBOL    EDATA    DWORD     budget_us
      00000A0FH   SYMBOL    EDATA    FLOAT     limit_mcps
      00000A13H   SYMBOL    EDATA    ---       data_buffer
      00000A16H   SYMBOL    EDATA    WORD      limit_mcps_16bit
      00000C86H   SYMBOL    EDATA    ---       reg_databuffer
      00000008H   SYMBOL    EDATA    DWORD     measurement_timing_budget_us
      0000000CH   SYMBOL    EDATA    BYTE      stop_variable
      0000000DH   SYMBOL    EDATA    BYTE      return_state
      0000000EH   SYMBOL    EDATA    BYTE      reg_data_buffer
      0000000FH   SYMBOL    EDATA    ---       ref_spad_map
      00000015H   SYMBOL    EDATA    ---       data_buffer
      0000001CH   SYMBOL    EDATA    BYTE      i

      ---         MODULE    ---      ---       SEEKFREE_DL1B
      00000C4DH   PUBLIC    EDATA    WORD      dl1b_distance_mm
      00000C4FH   PUBLIC    EDATA    BYTE      dl1b_finsh_flag
      00000C50H   PUBLIC    EDATA    BYTE      dl1b_init_flag
      000007BDH   PUBLIC    EDATA    BYTE      ?dl1b_iic_transfer_8bit_array?BYTE
      000000D0H   SFRSYM    DATA     BYTE      PSW
      0000009DH   SFRSYM    DATA     BYTE      IRCBAND
      00000097H   SFRSYM    DATA     BYTE      AUXR2
      000000EFH   SFRSYM    DATA     BYTE      AUXINTIF
      000000FDH   SFRSYM    DATA     BYTE      S4CON
      000000ACH   SFRSYM    DATA     BYTE      S3CON
      0000009AH   SFRSYM    DATA     BYTE      S2CON
      000000B7H   SFRSYM    DATA     BYTE      IPH
      000000CDH   SFRSYM    DATA     BYTE      SPSTAT
      000000DDH   SFRSYM    DATA     BYTE      T4T3M
      000000C1H   SFRSYM    DATA     BYTE      WDT_CONTR
      000000DFH   SFRSYM    DATA     BYTE      IP3
      000000F4H   SFRSYM    DATA     BYTE      USBCON
      000000B5H   SFRSYM    DATA     BYTE      IP2
      000000FFH   SFRSYM    DATA     BYTE      RSTCFG
      000000F9H   SFRSYM    DATA     BYTE      LINICR
      0000008EH   SFRSYM    DATA     BYTE      AUXR
      000000AFH   SFRSYM    DATA     BYTE      IE2
      000000C0H.7 SFRSYM    DATA     BIT       P47
      000000E8H.5 SFRSYM    DATA     BIT       P65
      000000E8H.3 SFRSYM    DATA     BIT       P63
      00000088H   SFRSYM    DATA     BYTE      TCON
      00000098H   SFRSYM    DATA     BYTE      SCON
      000000F1H   SFRSYM    DATA     BYTE      CANICR
      00000087H   SFRSYM    DATA     BYTE      PCON
      000000BCH   SFRSYM    DATA     BYTE      ADC_CONTR
      000000E7H   SFRSYM    DATA     BYTE      CMPCR2
      000000E6H   SFRSYM    DATA     BYTE      CMPCR1
      000000B8H   SFRSYM    DATA     BYTE      IP
      0000008FH   SFRSYM    DATA     BYTE      INTCLKO
      000000EEH   SFRSYM    DATA     BYTE      IP3H
      000000B6H   SFRSYM    DATA     BYTE      IP2H
      000000A8H   SFRSYM    DATA     BYTE      IE
      000000BBH   SFRSYM    DATA     BYTE      P_SW3
      000000BAH   SFRSYM    DATA     BYTE      P_SW2
      000000A2H   SFRSYM    DATA     BYTE      P_SW1
      000000CEH   SFRSYM    DATA     BYTE      SPCTL
      000000F8H   SFRSYM    DATA     BYTE      P7
      000000E8H   SFRSYM    DATA     BYTE      P6
      000000C8H   SFRSYM    DATA     BYTE      P5
      000000C0H   SFRSYM    DATA     BYTE      P4
      000000B0H   SFRSYM    DATA     BYTE      P3
      000000A0H   SFRSYM    DATA     BYTE      P2
L251 LINKER/LOCATER V4.66.93.0                                                        07/31/2023  12:50:11  PAGE 63


      00000090H   SFRSYM    DATA     BYTE      P1
      00000080H   SFRSYM    DATA     BYTE      P0
      00FF76F3H   SYMBOL    CODE     ---       dl1b_simiic_sendack
      00FF6A04H   SYMBOL    CODE     ---       dl1b_read_ch
      00FF7385H   SYMBOL    CODE     ---       dl1b_send_ch
      00FF781DH   SYMBOL    CODE     ---       dl1b_sccb_waitack
      00FF78B9H   SYMBOL    CODE     ---       dl1b_simiic_delay

      00FF78B9H   BLOCK     CODE     ---       LVL=0
      00000CBBH   SYMBOL    EDATA    WORD      j
      00FF78B9H   LINE      CODE     ---       #76
      00FF78B9H   LINE      CODE     ---       #77
      00FF78B9H   LINE      CODE     ---       #78
      00FF78BFH   LINE      CODE     ---       #79
      00FF78D5H   LINE      CODE     ---       #80
      ---         BLOCKEND  ---      ---       LVL=0

      00FF76F3H   BLOCK     CODE     ---       LVL=0
      00000CF2H   SYMBOL    EDATA    BYTE      ack_dat
      00FF76F3H   LINE      CODE     ---       #107
      00FF76F7H   LINE      CODE     ---       #109
      00FF76FAH   LINE      CODE     ---       #110
      00FF76FDH   LINE      CODE     ---       #111
      00FF770BH   LINE      CODE     ---       #112
      00FF770EH   LINE      CODE     ---       #114
      00FF7711H   LINE      CODE     ---       #115
      00FF7714H   LINE      CODE     ---       #116
      00FF7717H   LINE      CODE     ---       #117
      00FF771AH   LINE      CODE     ---       #118
      ---         BLOCKEND  ---      ---       LVL=0

      00FF781DH   BLOCK     CODE     ---       LVL=0
      00FF781DH   LINE      CODE     ---       #121
      00FF781DH   LINE      CODE     ---       #123
      00FF7820H   LINE      CODE     ---       #125
      00FF7823H   LINE      CODE     ---       #127
      00FF7826H   LINE      CODE     ---       #128
      00FF7829H   LINE      CODE     ---       #130
      00FF782CH   LINE      CODE     ---       #133
      00FF782FH   LINE      CODE     ---       #134
      00FF7833H   LINE      CODE     ---       #135
      00FF7833H   LINE      CODE     ---       #137
      00FF7836H   LINE      CODE     ---       #138
      00FF7839H   LINE      CODE     ---       #139
      00FF783DH   LINE      CODE     ---       #140
      ---         BLOCKEND  ---      ---       LVL=0

      00FF7385H   BLOCK     CODE     ---       LVL=0
      00000CBDH   SYMBOL    EDATA    BYTE      c
      00FF7389H   BLOCK     CODE     NEAR LAB  LVL=1
      00000CBEH   SYMBOL    EDATA    BYTE      i
      ---         BLOCKEND  ---      ---       LVL=1
      00FF7385H   LINE      CODE     ---       #146
      00FF7389H   LINE      CODE     ---       #147
      00FF7389H   LINE      CODE     ---       #148
      00FF738FH   LINE      CODE     ---       #149
      00FF7391H   LINE      CODE     ---       #151
      00FF739DH   LINE      CODE     ---       #152
      00FF73A0H   LINE      CODE     ---       #153
      00FF73AAH   LINE      CODE     ---       #154
      00FF73ADH   LINE      CODE     ---       #155
      00FF73B0H   LINE      CODE     ---       #156
      00FF73B3H   LINE      CODE     ---       #157
      00FF73B6H   LINE      CODE     ---       #158
      00FF73CAH   LINE      CODE     ---       #159
L251 LINKER/LOCATER V4.66.93.0                                                        07/31/2023  12:50:11  PAGE 64


      00FF73CDH   LINE      CODE     ---       #160
      ---         BLOCKEND  ---      ---       LVL=0

      00FF6A04H   BLOCK     CODE     ---       LVL=0
      00000C89H   SYMBOL    EDATA    BYTE      ack_x
      00FF6A08H   BLOCK     CODE     NEAR LAB  LVL=1
      00000C8AH   SYMBOL    EDATA    BYTE      i
      00000C8BH   SYMBOL    EDATA    BYTE      c
      ---         BLOCKEND  ---      ---       LVL=1
      00FF6A04H   LINE      CODE     ---       #166
      00FF6A08H   LINE      CODE     ---       #167
      00FF6A08H   LINE      CODE     ---       #170
      00FF6A0DH   LINE      CODE     ---       #171
      00FF6A10H   LINE      CODE     ---       #172
      00FF6A13H   LINE      CODE     ---       #173
      00FF6A16H   LINE      CODE     ---       #175
      00FF6A1DH   LINE      CODE     ---       #177
      00FF6A20H   LINE      CODE     ---       #178
      00FF6A23H   LINE      CODE     ---       #179
      00FF6A26H   LINE      CODE     ---       #180
      00FF6A29H   LINE      CODE     ---       #181
      00FF6A2CH   LINE      CODE     ---       #182
      00FF6A36H   LINE      CODE     ---       #183
      00FF6A39H   LINE      CODE     ---       #185
      00FF6A45H   LINE      CODE     ---       #186
      00FF6A5CH   LINE      CODE     ---       #189
      00FF6A5FH   LINE      CODE     ---       #190
      00FF6A62H   LINE      CODE     ---       #191
      00FF6A69H   LINE      CODE     ---       #193
      00FF6A6DH   LINE      CODE     ---       #194
      ---         BLOCKEND  ---      ---       LVL=0
      000007BDH   SYMBOL    EDATA    ---       write_data
      000007C1H   SYMBOL    EDATA    DWORD     write_len
      000007C5H   SYMBOL    EDATA    ---       read_data
      000007C9H   SYMBOL    EDATA    DWORD     read_len
      00000C06H   SYMBOL    EDATA    ---       data_buffer
      00000C09H   SYMBOL    EDATA    INT       dl1b_distance_temp
      0000022BH   SYMBOL    EDATA    BYTE      return_state
      0000022CH   SYMBOL    EDATA    ---       data_buffer
      000002B5H   SYMBOL    EDATA    WORD      time_out_count

      ---         MODULE    ---      ---       SEEKFREE_FONT
      00FF212DH   PUBLIC    CODE     ---       oled_8x16
      00FF271DH   PUBLIC    CODE     ---       tft_ascii
      00FF2D0DH   PUBLIC    CODE     ---       oled_6x8
      000000D0H   SFRSYM    DATA     BYTE      PSW
      0000009DH   SFRSYM    DATA     BYTE      IRCBAND
      00000097H   SFRSYM    DATA     BYTE      AUXR2
      000000EFH   SFRSYM    DATA     BYTE      AUXINTIF
      000000FDH   SFRSYM    DATA     BYTE      S4CON
      000000ACH   SFRSYM    DATA     BYTE      S3CON
      0000009AH   SFRSYM    DATA     BYTE      S2CON
      000000B7H   SFRSYM    DATA     BYTE      IPH
      000000CDH   SFRSYM    DATA     BYTE      SPSTAT
      000000DDH   SFRSYM    DATA     BYTE      T4T3M
      000000C1H   SFRSYM    DATA     BYTE      WDT_CONTR
      000000DFH   SFRSYM    DATA     BYTE      IP3
      000000F4H   SFRSYM    DATA     BYTE      USBCON
      000000B5H   SFRSYM    DATA     BYTE      IP2
      000000FFH   SFRSYM    DATA     BYTE      RSTCFG
      000000F9H   SFRSYM    DATA     BYTE      LINICR
      0000008EH   SFRSYM    DATA     BYTE      AUXR
      000000AFH   SFRSYM    DATA     BYTE      IE2
      00000088H   SFRSYM    DATA     BYTE      TCON
      00000098H   SFRSYM    DATA     BYTE      SCON
L251 LINKER/LOCATER V4.66.93.0                                                        07/31/2023  12:50:11  PAGE 65


      000000F1H   SFRSYM    DATA     BYTE      CANICR
      00000087H   SFRSYM    DATA     BYTE      PCON
      000000BCH   SFRSYM    DATA     BYTE      ADC_CONTR
      000000E7H   SFRSYM    DATA     BYTE      CMPCR2
      000000E6H   SFRSYM    DATA     BYTE      CMPCR1
      000000B8H   SFRSYM    DATA     BYTE      IP
      0000008FH   SFRSYM    DATA     BYTE      INTCLKO
      000000EEH   SFRSYM    DATA     BYTE      IP3H
      000000B6H   SFRSYM    DATA     BYTE      IP2H
      000000A8H   SFRSYM    DATA     BYTE      IE
      000000BBH   SFRSYM    DATA     BYTE      P_SW3
      000000BAH   SFRSYM    DATA     BYTE      P_SW2
      000000A2H   SFRSYM    DATA     BYTE      P_SW1
      000000CEH   SFRSYM    DATA     BYTE      SPCTL
      000000F8H   SFRSYM    DATA     BYTE      P7
      000000E8H   SFRSYM    DATA     BYTE      P6
      000000C8H   SFRSYM    DATA     BYTE      P5
      000000C0H   SFRSYM    DATA     BYTE      P4
      000000B0H   SFRSYM    DATA     BYTE      P3
      000000A0H   SFRSYM    DATA     BYTE      P2
      00000090H   SFRSYM    DATA     BYTE      P1
      00000080H   SFRSYM    DATA     BYTE      P0

      ---         MODULE    ---      ---       SEEKFREE_ICM20602
      000008A7H   PUBLIC    EDATA    INT       icm20602_acc_x
      000008A9H   PUBLIC    EDATA    INT       icm20602_acc_y
      000008ABH   PUBLIC    EDATA    INT       icm20602_acc_z
      000008ADH   PUBLIC    EDATA    INT       icm20602_gyro_x
      000008AFH   PUBLIC    EDATA    INT       icm20602_gyro_y
      000008B1H   PUBLIC    EDATA    INT       icm20602_gyro_z
      000000D0H   SFRSYM    DATA     BYTE      PSW
      0000009DH   SFRSYM    DATA     BYTE      IRCBAND
      00000097H   SFRSYM    DATA     BYTE      AUXR2
      000000EFH   SFRSYM    DATA     BYTE      AUXINTIF
      000000FDH   SFRSYM    DATA     BYTE      S4CON
      000000ACH   SFRSYM    DATA     BYTE      S3CON
      0000009AH   SFRSYM    DATA     BYTE      S2CON
      000000B7H   SFRSYM    DATA     BYTE      IPH
      000000CDH   SFRSYM    DATA     BYTE      SPSTAT
      000000DDH   SFRSYM    DATA     BYTE      T4T3M
      000000C1H   SFRSYM    DATA     BYTE      WDT_CONTR
      000000DFH   SFRSYM    DATA     BYTE      IP3
      000000F4H   SFRSYM    DATA     BYTE      USBCON
      000000B5H   SFRSYM    DATA     BYTE      IP2
      000000FFH   SFRSYM    DATA     BYTE      RSTCFG
      000000F9H   SFRSYM    DATA     BYTE      LINICR
      0000008EH   SFRSYM    DATA     BYTE      AUXR
      000000AFH   SFRSYM    DATA     BYTE      IE2
      000000C0H.3 SFRSYM    DATA     BIT       P43
      000000C0H.2 SFRSYM    DATA     BIT       P42
      00000088H   SFRSYM    DATA     BYTE      TCON
      000000C0H.1 SFRSYM    DATA     BIT       P41
      00000098H   SFRSYM    DATA     BYTE      SCON
      000000C0H.0 SFRSYM    DATA     BIT       P40
      000000F1H   SFRSYM    DATA     BYTE      CANICR
      00000087H   SFRSYM    DATA     BYTE      PCON
      000000BCH   SFRSYM    DATA     BYTE      ADC_CONTR
      000000E7H   SFRSYM    DATA     BYTE      CMPCR2
      000000E6H   SFRSYM    DATA     BYTE      CMPCR1
      000000B8H   SFRSYM    DATA     BYTE      IP
      0000008FH   SFRSYM    DATA     BYTE      INTCLKO
      000000EEH   SFRSYM    DATA     BYTE      IP3H
      000000B6H   SFRSYM    DATA     BYTE      IP2H
      000000A8H   SFRSYM    DATA     BYTE      IE
      000000BBH   SFRSYM    DATA     BYTE      P_SW3
L251 LINKER/LOCATER V4.66.93.0                                                        07/31/2023  12:50:11  PAGE 66


      000000BAH   SFRSYM    DATA     BYTE      P_SW2
      000000A2H   SFRSYM    DATA     BYTE      P_SW1
      000000CEH   SFRSYM    DATA     BYTE      SPCTL
      000000F8H   SFRSYM    DATA     BYTE      P7
      000000E8H   SFRSYM    DATA     BYTE      P6
      000000C8H   SFRSYM    DATA     BYTE      P5
      000000C0H   SFRSYM    DATA     BYTE      P4
      000000B0H   SFRSYM    DATA     BYTE      P3
      000000A0H   SFRSYM    DATA     BYTE      P2
      00000090H   SFRSYM    DATA     BYTE      P1
      00000080H   SFRSYM    DATA     BYTE      P0
      00FF785FH   SYMBOL    CODE     ---       icm20602_read_register
      00FF6D7EH   SYMBOL    CODE     ---       icm20602_simspi_wr_byte
      00FF70D6H   SYMBOL    CODE     ---       icm20602_simspi_r_reg_bytes
      00FF776BH   SYMBOL    CODE     ---       icm20602_simspi_r_reg_byte

      00FF6D7EH   BLOCK     CODE     ---       LVL=0
      00000CBFH   SYMBOL    EDATA    BYTE      byte
      00FF6D82H   BLOCK     CODE     NEAR LAB  LVL=1
      00000CC0H   SYMBOL    EDATA    BYTE      i
      ---         BLOCKEND  ---      ---       LVL=1
      00FF6D7EH   LINE      CODE     ---       #278
      00FF6D82H   LINE      CODE     ---       #279
      00FF6D82H   LINE      CODE     ---       #282
      00FF6D89H   LINE      CODE     ---       #284
      00FF6D97H   LINE      CODE     ---       #285
      00FF6DA1H   LINE      CODE     ---       #286
      00FF6DA4H   LINE      CODE     ---       #287
      00FF6DA7H   LINE      CODE     ---       #289
      00FF6DAAH   LINE      CODE     ---       #290
      00FF6DADH   LINE      CODE     ---       #291
      00FF6DBBH   LINE      CODE     ---       #292
      00FF6DD2H   LINE      CODE     ---       #293
      00FF6DD6H   LINE      CODE     ---       #294
      ---         BLOCKEND  ---      ---       LVL=0
      00000CC1H   SYMBOL    EDATA    BYTE      cmd
      00000CC2H   SYMBOL    EDATA    BYTE      val

      00FF776BH   BLOCK     CODE     ---       LVL=0
      00000C0BH   SYMBOL    EDATA    BYTE      cmd
      00000C0CH   SYMBOL    EDATA    ---       val
      00FF776BH   LINE      CODE     ---       #340
      00FF7773H   LINE      CODE     ---       #343
      00FF777FH   LINE      CODE     ---       #344
      00FF7786H   LINE      CODE     ---       #345
      00FF7791H   LINE      CODE     ---       #347
      ---         BLOCKEND  ---      ---       LVL=0

      00FF70D6H   BLOCK     CODE     ---       LVL=0
      00000821H   SYMBOL    EDATA    BYTE      cmd
      00000822H   SYMBOL    EDATA    ---       val
      00000826H   SYMBOL    EDATA    DWORD     num
      00FF70E2H   BLOCK     CODE     NEAR LAB  LVL=1
      0000082AH   SYMBOL    EDATA    DWORD     i
      ---         BLOCKEND  ---      ---       LVL=1
      00FF70D6H   LINE      CODE     ---       #357
      00FF70E2H   LINE      CODE     ---       #358
      00FF70E2H   LINE      CODE     ---       #359
      00FF70E8H   LINE      CODE     ---       #360
      00FF70F4H   LINE      CODE     ---       #361
      00FF70FBH   LINE      CODE     ---       #363
      00FF70FDH   LINE      CODE     ---       #365
      00FF7112H   LINE      CODE     ---       #366
      00FF7126H   LINE      CODE     ---       #367
      ---         BLOCKEND  ---      ---       LVL=0
L251 LINKER/LOCATER V4.66.93.0                                                        07/31/2023  12:50:11  PAGE 67


      00000CC3H   SYMBOL    EDATA    BYTE      reg
      00000CC4H   SYMBOL    EDATA    BYTE      dat

      00FF785FH   BLOCK     CODE     ---       LVL=0
      00000CC5H   SYMBOL    EDATA    BYTE      reg
      00FF7863H   BLOCK     CODE     NEAR LAB  LVL=1
      00000CC6H   SYMBOL    EDATA    BYTE      dat
      ---         BLOCKEND  ---      ---       LVL=1
      00FF785FH   LINE      CODE     ---       #407
      00FF7863H   LINE      CODE     ---       #408
      00FF7863H   LINE      CODE     ---       #410
      00FF7866H   LINE      CODE     ---       #411
      00FF7875H   LINE      CODE     ---       #412
      00FF7878H   LINE      CODE     ---       #413
      00FF787CH   LINE      CODE     ---       #414
      ---         BLOCKEND  ---      ---       LVL=0
      00000A18H   SYMBOL    EDATA    BYTE      reg
      00000A19H   SYMBOL    EDATA    ---       dat
      00000A1DH   SYMBOL    EDATA    DWORD     len
      00000C51H   SYMBOL    EDATA    BYTE      dat
      00000C52H   SYMBOL    EDATA    BYTE      return_state
      00000C53H   SYMBOL    EDATA    WORD      timeout_count
      00000B6DH   SYMBOL    EDATA    ---       dat
      00000B73H   SYMBOL    EDATA    ---       dat
      00000B79H   SYMBOL    EDATA    INT       acc_value
      00000B7BH   SYMBOL    EDATA    FLOAT     acc_data
      00000B7FH   SYMBOL    EDATA    INT       gyro_value
      00000B81H   SYMBOL    EDATA    FLOAT     gyro_data
      00000C55H   SYMBOL    EDATA    BYTE      val
      00000C56H   SYMBOL    EDATA    BYTE      return_state
      00000C57H   SYMBOL    EDATA    WORD      timeout_count

      ---         MODULE    ---      ---       SEEKFREE_IMU660RA
      000008B3H   PUBLIC    EDATA    INT       imu660ra_acc_x
      000008B5H   PUBLIC    EDATA    INT       imu660ra_acc_y
      000008B7H   PUBLIC    EDATA    INT       imu660ra_acc_z
      000008B9H   PUBLIC    EDATA    INT       imu660ra_gyro_x
      000008BBH   PUBLIC    EDATA    INT       imu660ra_gyro_y
      000008BDH   PUBLIC    EDATA    INT       imu660ra_gyro_z
      000000D0H   SFRSYM    DATA     BYTE      PSW
      0000009DH   SFRSYM    DATA     BYTE      IRCBAND
      00000097H   SFRSYM    DATA     BYTE      AUXR2
      000000EFH   SFRSYM    DATA     BYTE      AUXINTIF
      000000FDH   SFRSYM    DATA     BYTE      S4CON
      000000ACH   SFRSYM    DATA     BYTE      S3CON
      0000009AH   SFRSYM    DATA     BYTE      S2CON
      000000B7H   SFRSYM    DATA     BYTE      IPH
      000000CDH   SFRSYM    DATA     BYTE      SPSTAT
      000000DDH   SFRSYM    DATA     BYTE      T4T3M
      000000C1H   SFRSYM    DATA     BYTE      WDT_CONTR
      000000DFH   SFRSYM    DATA     BYTE      IP3
      000000F4H   SFRSYM    DATA     BYTE      USBCON
      000000B5H   SFRSYM    DATA     BYTE      IP2
      000000FFH   SFRSYM    DATA     BYTE      RSTCFG
      000000F9H   SFRSYM    DATA     BYTE      LINICR
      0000008EH   SFRSYM    DATA     BYTE      AUXR
      000000AFH   SFRSYM    DATA     BYTE      IE2
      000000C0H.3 SFRSYM    DATA     BIT       P43
      000000C0H.2 SFRSYM    DATA     BIT       P42
      00000088H   SFRSYM    DATA     BYTE      TCON
      000000C0H.1 SFRSYM    DATA     BIT       P41
      00000098H   SFRSYM    DATA     BYTE      SCON
      000000C0H.0 SFRSYM    DATA     BIT       P40
      000000F1H   SFRSYM    DATA     BYTE      CANICR
      00000087H   SFRSYM    DATA     BYTE      PCON
L251 LINKER/LOCATER V4.66.93.0                                                        07/31/2023  12:50:11  PAGE 68


      000000BCH   SFRSYM    DATA     BYTE      ADC_CONTR
      000000E7H   SFRSYM    DATA     BYTE      CMPCR2
      000000E6H   SFRSYM    DATA     BYTE      CMPCR1
      000000B8H   SFRSYM    DATA     BYTE      IP
      0000008FH   SFRSYM    DATA     BYTE      INTCLKO
      000000EEH   SFRSYM    DATA     BYTE      IP3H
      000000B6H   SFRSYM    DATA     BYTE      IP2H
      000000A8H   SFRSYM    DATA     BYTE      IE
      000000BBH   SFRSYM    DATA     BYTE      P_SW3
      000000BAH   SFRSYM    DATA     BYTE      P_SW2
      000000A2H   SFRSYM    DATA     BYTE      P_SW1
      000000CEH   SFRSYM    DATA     BYTE      SPCTL
      000000F8H   SFRSYM    DATA     BYTE      P7
      000000E8H   SFRSYM    DATA     BYTE      P6
      000000C8H   SFRSYM    DATA     BYTE      P5
      000000C0H   SFRSYM    DATA     BYTE      P4
      000000B0H   SFRSYM    DATA     BYTE      P3
      000000A0H   SFRSYM    DATA     BYTE      P2
      00000090H   SFRSYM    DATA     BYTE      P1
      00000080H   SFRSYM    DATA     BYTE      P0
      00FF77DAH   SYMBOL    CODE     ---       imu660ra_read_register
      00FF6DD7H   SYMBOL    CODE     ---       imu660ra_simspi_wr_byte
      00FF72F1H   SYMBOL    CODE     ---       imu660ra_simspi_r_reg_bytes

      00FF6DD7H   BLOCK     CODE     ---       LVL=0
      00000CC7H   SYMBOL    EDATA    BYTE      byte
      00FF6DDBH   BLOCK     CODE     NEAR LAB  LVL=1
      00000CC8H   SYMBOL    EDATA    BYTE      i
      ---         BLOCKEND  ---      ---       LVL=1
      00FF6DD7H   LINE      CODE     ---       #309
      00FF6DDBH   LINE      CODE     ---       #310
      00FF6DDBH   LINE      CODE     ---       #313
      00FF6DE2H   LINE      CODE     ---       #315
      00FF6DF0H   LINE      CODE     ---       #316
      00FF6DFAH   LINE      CODE     ---       #317
      00FF6DFDH   LINE      CODE     ---       #318
      00FF6E00H   LINE      CODE     ---       #319
      00FF6E03H   LINE      CODE     ---       #320
      00FF6E06H   LINE      CODE     ---       #322
      00FF6E14H   LINE      CODE     ---       #323
      00FF6E2BH   LINE      CODE     ---       #324
      00FF6E2FH   LINE      CODE     ---       #325
      ---         BLOCKEND  ---      ---       LVL=0
      00000CC9H   SYMBOL    EDATA    BYTE      cmd
      00000CCAH   SYMBOL    EDATA    BYTE      val
      00000A21H   SYMBOL    EDATA    BYTE      cmd
      00000A22H   SYMBOL    EDATA    ---       dat_addr
      00000A26H   SYMBOL    EDATA    DWORD     len

      00FF72F1H   BLOCK     CODE     ---       LVL=0
      00000A2AH   SYMBOL    EDATA    BYTE      cmd
      00000A2BH   SYMBOL    EDATA    ---       val
      00000A2FH   SYMBOL    EDATA    DWORD     num
      00FF72F1H   LINE      CODE     ---       #382
      00FF72FDH   LINE      CODE     ---       #384
      00FF7309H   LINE      CODE     ---       #385
      00FF7310H   LINE      CODE     ---       #387
      00FF7312H   LINE      CODE     ---       #389
      00FF7327H   LINE      CODE     ---       #390
      00FF733BH   LINE      CODE     ---       #391
      ---         BLOCKEND  ---      ---       LVL=0
      00000CCBH   SYMBOL    EDATA    BYTE      reg
      00000CCCH   SYMBOL    EDATA    BYTE      dat
      00000A33H   SYMBOL    EDATA    BYTE      reg
      00000A34H   SYMBOL    EDATA    ---       dat
L251 LINKER/LOCATER V4.66.93.0                                                        07/31/2023  12:50:11  PAGE 69


      00000A38H   SYMBOL    EDATA    DWORD     len

      00FF77DAH   BLOCK     CODE     ---       LVL=0
      00000C8CH   SYMBOL    EDATA    BYTE      reg
      00FF77DEH   BLOCK     CODE     NEAR LAB  LVL=1
      00000C8DH   SYMBOL    EDATA    ---       dat
      ---         BLOCKEND  ---      ---       LVL=1
      00FF77DAH   LINE      CODE     ---       #432
      00FF77DEH   LINE      CODE     ---       #433
      00FF77DEH   LINE      CODE     ---       #435
      00FF77E1H   LINE      CODE     ---       #436
      00FF77F4H   LINE      CODE     ---       #437
      00FF77F7H   LINE      CODE     ---       #438
      00FF77FBH   LINE      CODE     ---       #439
      ---         BLOCKEND  ---      ---       LVL=0
      00000A3CH   SYMBOL    EDATA    BYTE      reg
      00000A3DH   SYMBOL    EDATA    ---       dat
      00000A41H   SYMBOL    EDATA    DWORD     len
      00000C59H   SYMBOL    EDATA    BYTE      dat
      00000C5AH   SYMBOL    EDATA    BYTE      return_state
      00000C5BH   SYMBOL    EDATA    WORD      timeout_count
      00000B26H   SYMBOL    EDATA    ---       dat
      00000B2DH   SYMBOL    EDATA    ---       dat
      00000B85H   SYMBOL    EDATA    INT       acc_value
      00000B87H   SYMBOL    EDATA    FLOAT     acc_dat
      00000B8BH   SYMBOL    EDATA    INT       gyro_value
      00000B8DH   SYMBOL    EDATA    FLOAT     gyro_dat
      00000CF3H   SYMBOL    EDATA    BYTE      return_state

      ---         MODULE    ---      ---       SEEKFREE_IMU963RA
      00000777H   PUBLIC    EDATA    INT       imu963ra_acc_x
      00000779H   PUBLIC    EDATA    INT       imu963ra_acc_y
      0000077BH   PUBLIC    EDATA    INT       imu963ra_acc_z
      0000077DH   PUBLIC    EDATA    INT       imu963ra_mag_x
      0000077FH   PUBLIC    EDATA    INT       imu963ra_mag_y
      00000781H   PUBLIC    EDATA    INT       imu963ra_mag_z
      00000783H   PUBLIC    EDATA    INT       imu963ra_gyro_x
      00000785H   PUBLIC    EDATA    INT       imu963ra_gyro_y
      00000787H   PUBLIC    EDATA    INT       imu963ra_gyro_z
      000000D0H   SFRSYM    DATA     BYTE      PSW
      0000009DH   SFRSYM    DATA     BYTE      IRCBAND
      00000097H   SFRSYM    DATA     BYTE      AUXR2
      000000EFH   SFRSYM    DATA     BYTE      AUXINTIF
      000000FDH   SFRSYM    DATA     BYTE      S4CON
      000000ACH   SFRSYM    DATA     BYTE      S3CON
      0000009AH   SFRSYM    DATA     BYTE      S2CON
      000000B7H   SFRSYM    DATA     BYTE      IPH
      000000CDH   SFRSYM    DATA     BYTE      SPSTAT
      000000DDH   SFRSYM    DATA     BYTE      T4T3M
      000000C1H   SFRSYM    DATA     BYTE      WDT_CONTR
      000000DFH   SFRSYM    DATA     BYTE      IP3
      000000F4H   SFRSYM    DATA     BYTE      USBCON
      000000B5H   SFRSYM    DATA     BYTE      IP2
      000000FFH   SFRSYM    DATA     BYTE      RSTCFG
      000000F9H   SFRSYM    DATA     BYTE      LINICR
      0000008EH   SFRSYM    DATA     BYTE      AUXR
      000000AFH   SFRSYM    DATA     BYTE      IE2
      000000C0H.3 SFRSYM    DATA     BIT       P43
      000000C0H.2 SFRSYM    DATA     BIT       P42
      00000088H   SFRSYM    DATA     BYTE      TCON
      000000C0H.1 SFRSYM    DATA     BIT       P41
      00000098H   SFRSYM    DATA     BYTE      SCON
      000000C0H.0 SFRSYM    DATA     BIT       P40
      000000F1H   SFRSYM    DATA     BYTE      CANICR
      00000087H   SFRSYM    DATA     BYTE      PCON
L251 LINKER/LOCATER V4.66.93.0                                                        07/31/2023  12:50:11  PAGE 70


      000000BCH   SFRSYM    DATA     BYTE      ADC_CONTR
      000000E7H   SFRSYM    DATA     BYTE      CMPCR2
      000000E6H   SFRSYM    DATA     BYTE      CMPCR1
      000000B8H   SFRSYM    DATA     BYTE      IP
      0000008FH   SFRSYM    DATA     BYTE      INTCLKO
      000000EEH   SFRSYM    DATA     BYTE      IP3H
      000000B6H   SFRSYM    DATA     BYTE      IP2H
      000000A8H   SFRSYM    DATA     BYTE      IE
      000000BBH   SFRSYM    DATA     BYTE      P_SW3
      000000BAH   SFRSYM    DATA     BYTE      P_SW2
      000000A2H   SFRSYM    DATA     BYTE      P_SW1
      000000CEH   SFRSYM    DATA     BYTE      SPCTL
      000000F8H   SFRSYM    DATA     BYTE      P7
      000000E8H   SFRSYM    DATA     BYTE      P6
      000000C8H   SFRSYM    DATA     BYTE      P5
      000000C0H   SFRSYM    DATA     BYTE      P4
      000000B0H   SFRSYM    DATA     BYTE      P3
      000000A0H   SFRSYM    DATA     BYTE      P2
      00000090H   SFRSYM    DATA     BYTE      P1
      00000080H   SFRSYM    DATA     BYTE      P0
      00FF6E30H   SYMBOL    CODE     ---       imu963ra_simspi_wr_byte
      00FF68C4H   SYMBOL    CODE     ---       imu963ra_read_mag_register
      00FF77B7H   SYMBOL    CODE     ---       imu963ra_read_acc_gyro_register
      00FF75F7H   SYMBOL    CODE     ---       imu963ra_simspi_r_reg_byte
      00FF79CFH   SYMBOL    CODE     ---       imu963ra_write_acc_gyro_register
      00FF783EH   SYMBOL    CODE     ---       imu963ra_simspi_w_reg_byte

      00FF6E30H   BLOCK     CODE     ---       LVL=0
      00000CCDH   SYMBOL    EDATA    BYTE      byte
      00FF6E34H   BLOCK     CODE     NEAR LAB  LVL=1
      00000CCEH   SYMBOL    EDATA    BYTE      i
      ---         BLOCKEND  ---      ---       LVL=1
      00FF6E30H   LINE      CODE     ---       #344
      00FF6E34H   LINE      CODE     ---       #345
      00FF6E34H   LINE      CODE     ---       #348
      00FF6E3BH   LINE      CODE     ---       #350
      00FF6E49H   LINE      CODE     ---       #351
      00FF6E53H   LINE      CODE     ---       #352
      00FF6E56H   LINE      CODE     ---       #353
      00FF6E59H   LINE      CODE     ---       #355
      00FF6E5CH   LINE      CODE     ---       #356
      00FF6E5FH   LINE      CODE     ---       #357
      00FF6E6DH   LINE      CODE     ---       #358
      00FF6E84H   LINE      CODE     ---       #359
      00FF6E88H   LINE      CODE     ---       #360
      ---         BLOCKEND  ---      ---       LVL=0

      00FF783EH   BLOCK     CODE     ---       LVL=0
      00000CCFH   SYMBOL    EDATA    BYTE      cmd
      00000CD0H   SYMBOL    EDATA    BYTE      val
      00FF783EH   LINE      CODE     ---       #368
      00FF7846H   LINE      CODE     ---       #370
      00FF7849H   LINE      CODE     ---       #371
      00FF784DH   LINE      CODE     ---       #372
      00FF7854H   LINE      CODE     ---       #373
      00FF785BH   LINE      CODE     ---       #374
      00FF785EH   LINE      CODE     ---       #375
      ---         BLOCKEND  ---      ---       LVL=0

      00FF75F7H   BLOCK     CODE     ---       LVL=0
      00000C10H   SYMBOL    EDATA    BYTE      cmd
      00000C11H   SYMBOL    EDATA    ---       val
      00FF75F7H   LINE      CODE     ---       #406
      00FF75FFH   LINE      CODE     ---       #408
      00FF7602H   LINE      CODE     ---       #409
L251 LINKER/LOCATER V4.66.93.0                                                        07/31/2023  12:50:11  PAGE 71


      00FF760EH   LINE      CODE     ---       #410
      00FF7615H   LINE      CODE     ---       #411
      00FF7620H   LINE      CODE     ---       #412
      00FF7623H   LINE      CODE     ---       #413
      ---         BLOCKEND  ---      ---       LVL=0
      00000A45H   SYMBOL    EDATA    BYTE      cmd
      00000A46H   SYMBOL    EDATA    ---       val
      00000A4AH   SYMBOL    EDATA    DWORD     num

      00FF79CFH   BLOCK     CODE     ---       LVL=0
      00000CD1H   SYMBOL    EDATA    BYTE      reg
      00000CD2H   SYMBOL    EDATA    BYTE      dat
      00FF79CFH   LINE      CODE     ---       #445
      00FF79D7H   LINE      CODE     ---       #447
      00FF79DAH   LINE      CODE     ---       #448
      00FF79E5H   LINE      CODE     ---       #450
      00FF79E8H   LINE      CODE     ---       #451
      ---         BLOCKEND  ---      ---       LVL=0

      00FF77B7H   BLOCK     CODE     ---       LVL=0
      00000CD3H   SYMBOL    EDATA    BYTE      reg
      00FF77BBH   BLOCK     CODE     NEAR LAB  LVL=1
      00000CD4H   SYMBOL    EDATA    BYTE      dat
      ---         BLOCKEND  ---      ---       LVL=1
      00FF77B7H   LINE      CODE     ---       #460
      00FF77BBH   LINE      CODE     ---       #461
      00FF77BBH   LINE      CODE     ---       #462
      00FF77C0H   LINE      CODE     ---       #463
      00FF77C3H   LINE      CODE     ---       #464
      00FF77D2H   LINE      CODE     ---       #465
      00FF77D5H   LINE      CODE     ---       #466
      00FF77D9H   LINE      CODE     ---       #467
      ---         BLOCKEND  ---      ---       LVL=0
      00000A4EH   SYMBOL    EDATA    BYTE      reg
      00000A4FH   SYMBOL    EDATA    ---       dat
      00000A53H   SYMBOL    EDATA    DWORD     len
      00000B91H   SYMBOL    EDATA    BYTE      addr
      00000B92H   SYMBOL    EDATA    BYTE      reg
      00000B93H   SYMBOL    EDATA    BYTE      dat
      00000B94H   SYMBOL    EDATA    BYTE      return_state
      00000B95H   SYMBOL    EDATA    WORD      timeout_count

      00FF68C4H   BLOCK     CODE     ---       LVL=0
      00000C5DH   SYMBOL    EDATA    BYTE      addr
      00000C5EH   SYMBOL    EDATA    BYTE      reg
      00FF68CCH   BLOCK     CODE     NEAR LAB  LVL=1
      00000C5FH   SYMBOL    EDATA    WORD      timeout_count
      ---         BLOCKEND  ---      ---       LVL=1
      00FF68C4H   LINE      CODE     ---       #529
      00FF68CCH   LINE      CODE     ---       #530
      00FF68CCH   LINE      CODE     ---       #531
      00FF68D2H   LINE      CODE     ---       #533
      00FF68DCH   LINE      CODE     ---       #534
      00FF68EAH   LINE      CODE     ---       #535
      00FF68F3H   LINE      CODE     ---       #536
      00FF68FBH   LINE      CODE     ---       #537
      00FF6903H   LINE      CODE     ---       #540
      00FF6905H   LINE      CODE     ---       #542
      00FF691BH   LINE      CODE     ---       #544
      00FF691BH   LINE      CODE     ---       #545
      00FF691BH   LINE      CODE     ---       #546
      00FF6922H   LINE      CODE     ---       #547
      00FF692AH   LINE      CODE     ---       #549
      00FF692FH   LINE      CODE     ---       #550
      ---         BLOCKEND  ---      ---       LVL=0
L251 LINKER/LOCATER V4.66.93.0                                                        07/31/2023  12:50:11  PAGE 72


      00000CD5H   SYMBOL    EDATA    BYTE      addr
      00000CD6H   SYMBOL    EDATA    BYTE      reg
      00000C61H   SYMBOL    EDATA    BYTE      return_state
      00000C62H   SYMBOL    EDATA    BYTE      dat
      00000C63H   SYMBOL    EDATA    WORD      timeout_count
      00000C65H   SYMBOL    EDATA    BYTE      return_state
      00000C66H   SYMBOL    EDATA    BYTE      dat
      00000C67H   SYMBOL    EDATA    WORD      timeout_count
      00000B97H   SYMBOL    EDATA    ---       dat
      00000B9DH   SYMBOL    EDATA    ---       dat
      00000B34H   SYMBOL    EDATA    BYTE      temp_status
      00000B35H   SYMBOL    EDATA    ---       dat
      00000BA3H   SYMBOL    EDATA    INT       acc_value
      00000BA5H   SYMBOL    EDATA    FLOAT     acc_dat
      00000BA9H   SYMBOL    EDATA    INT       gyro_value
      00000BABH   SYMBOL    EDATA    FLOAT     gyro_dat
      00000BAFH   SYMBOL    EDATA    INT       mag_value
      00000BB1H   SYMBOL    EDATA    FLOAT     mag_dat
      00000CF4H   SYMBOL    EDATA    BYTE      return_state

      ---         MODULE    ---      ---       SEEKFREE_IPS114_SPI
      00FF7678H   PUBLIC    CODE     ---       ips114_writedata_16bit
      00FF6F35H   PUBLIC    CODE     ---       ips114_writeDatai_16bit_simspi
      00FF720DH   PUBLIC    CODE     ---       ips114_writeIndex_simspi
      00FF7A8DH   PUBLIC    CODE     ---       ips114_writeIndex
      000004DAH   PUBLIC    EDATA    BYTE      ?ips114_showfloat_simspi?BYTE
      0000050AH   PUBLIC    EDATA    BYTE      ?ips114_showfloat?BYTE
      000000D0H   SFRSYM    DATA     BYTE      PSW
      0000009DH   SFRSYM    DATA     BYTE      IRCBAND
      00000097H   SFRSYM    DATA     BYTE      AUXR2
      000000EFH   SFRSYM    DATA     BYTE      AUXINTIF
      000000FDH   SFRSYM    DATA     BYTE      S4CON
      000000ACH   SFRSYM    DATA     BYTE      S3CON
      0000009AH   SFRSYM    DATA     BYTE      S2CON
      000000B7H   SFRSYM    DATA     BYTE      IPH
      000000CDH   SFRSYM    DATA     BYTE      SPSTAT
      000000DDH   SFRSYM    DATA     BYTE      T4T3M
      000000C1H   SFRSYM    DATA     BYTE      WDT_CONTR
      000000DFH   SFRSYM    DATA     BYTE      IP3
      000000F4H   SFRSYM    DATA     BYTE      USBCON
      000000B5H   SFRSYM    DATA     BYTE      IP2
      000000FFH   SFRSYM    DATA     BYTE      RSTCFG
      000000F9H   SFRSYM    DATA     BYTE      LINICR
      0000008EH   SFRSYM    DATA     BYTE      AUXR
      000000AFH   SFRSYM    DATA     BYTE      IE2
      000000A0H.7 SFRSYM    DATA     BIT       P27
      000000A0H.5 SFRSYM    DATA     BIT       P25
      00000088H   SFRSYM    DATA     BYTE      TCON
      000000A0H.3 SFRSYM    DATA     BIT       P23
      00000098H   SFRSYM    DATA     BYTE      SCON
      000000A0H.2 SFRSYM    DATA     BIT       P22
      000000A0H.1 SFRSYM    DATA     BIT       P21
      000000A0H.0 SFRSYM    DATA     BIT       P20
      000000F1H   SFRSYM    DATA     BYTE      CANICR
      00000087H   SFRSYM    DATA     BYTE      PCON
      000000BCH   SFRSYM    DATA     BYTE      ADC_CONTR
      000000E7H   SFRSYM    DATA     BYTE      CMPCR2
      000000E6H   SFRSYM    DATA     BYTE      CMPCR1
      000000B8H   SFRSYM    DATA     BYTE      IP
      0000008FH   SFRSYM    DATA     BYTE      INTCLKO
      000000EEH   SFRSYM    DATA     BYTE      IP3H
      000000B6H   SFRSYM    DATA     BYTE      IP2H
      000000A8H   SFRSYM    DATA     BYTE      IE
      000000BBH   SFRSYM    DATA     BYTE      P_SW3
      000000BAH   SFRSYM    DATA     BYTE      P_SW2
L251 LINKER/LOCATER V4.66.93.0                                                        07/31/2023  12:50:11  PAGE 73


      000000A2H   SFRSYM    DATA     BYTE      P_SW1
      000000CEH   SFRSYM    DATA     BYTE      SPCTL
      000000F8H   SFRSYM    DATA     BYTE      P7
      000000E8H   SFRSYM    DATA     BYTE      P6
      000000C8H   SFRSYM    DATA     BYTE      P5
      000000C0H   SFRSYM    DATA     BYTE      P4
      000000B0H   SFRSYM    DATA     BYTE      P3
      000000A0H   SFRSYM    DATA     BYTE      P2
      00000090H   SFRSYM    DATA     BYTE      P1
      00000080H   SFRSYM    DATA     BYTE      P0

      00FF720DH   BLOCK     CODE     ---       LVL=0
      00000CD7H   SYMBOL    EDATA    BYTE      dat
      00FF7211H   BLOCK     CODE     NEAR LAB  LVL=1
      00000CD8H   SYMBOL    EDATA    BYTE      i
      ---         BLOCKEND  ---      ---       LVL=1
      00FF720DH   LINE      CODE     ---       #61
      00FF7211H   LINE      CODE     ---       #62
      00FF7211H   LINE      CODE     ---       #63
      00FF7217H   LINE      CODE     ---       #64
      00FF721AH   LINE      CODE     ---       #65
      00FF721DH   LINE      CODE     ---       #67
      00FF7220H   LINE      CODE     ---       #69
      00FF7222H   LINE      CODE     ---       #71
      00FF722EH   LINE      CODE     ---       #72
      00FF7231H   LINE      CODE     ---       #73
      00FF7234H   LINE      CODE     ---       #75
      00FF7237H   LINE      CODE     ---       #76
      00FF7241H   LINE      CODE     ---       #77
      00FF7255H   LINE      CODE     ---       #78
      00FF7258H   LINE      CODE     ---       #79
      ---         BLOCKEND  ---      ---       LVL=0
      00000CD9H   SYMBOL    EDATA    BYTE      dat
      00000CDAH   SYMBOL    EDATA    BYTE      i

      00FF6F35H   BLOCK     CODE     ---       LVL=0
      00000C8FH   SYMBOL    EDATA    WORD      dat
      00FF6F39H   BLOCK     CODE     NEAR LAB  LVL=1
      00000C91H   SYMBOL    EDATA    BYTE      i
      ---         BLOCKEND  ---      ---       LVL=1
      00FF6F35H   LINE      CODE     ---       #115
      00FF6F39H   LINE      CODE     ---       #116
      00FF6F39H   LINE      CODE     ---       #117
      00FF6F3FH   LINE      CODE     ---       #118
      00FF6F42H   LINE      CODE     ---       #119
      00FF6F45H   LINE      CODE     ---       #120
      00FF6F48H   LINE      CODE     ---       #121
      00FF6F4AH   LINE      CODE     ---       #123
      00FF6F5FH   LINE      CODE     ---       #124
      00FF6F62H   LINE      CODE     ---       #125
      00FF6F65H   LINE      CODE     ---       #127
      00FF6F68H   LINE      CODE     ---       #128
      00FF6F72H   LINE      CODE     ---       #129
      00FF6F86H   LINE      CODE     ---       #130
      00FF6F89H   LINE      CODE     ---       #131
      ---         BLOCKEND  ---      ---       LVL=0
      00000AE0H   SYMBOL    EDATA    WORD      x1
      00000AE2H   SYMBOL    EDATA    WORD      y1
      00000AE4H   SYMBOL    EDATA    WORD      x2
      00000AE6H   SYMBOL    EDATA    WORD      y2
      00000BB5H   SYMBOL    EDATA    WORD      color
      00000BB7H   SYMBOL    EDATA    WORD      i
      00000BB9H   SYMBOL    EDATA    WORD      j
      00000BBBH   SYMBOL    EDATA    WORD      x
      00000BBDH   SYMBOL    EDATA    WORD      y
L251 LINKER/LOCATER V4.66.93.0                                                        07/31/2023  12:50:11  PAGE 74


      00000BBFH   SYMBOL    EDATA    WORD      color
      00000AE8H   SYMBOL    EDATA    WORD      x
      00000AEAH   SYMBOL    EDATA    WORD      y
      00000AECH   SYMBOL    EDATA    CHAR      dat
      00000AEDH   SYMBOL    EDATA    BYTE      i
      00000AEEH   SYMBOL    EDATA    BYTE      j
      00000AEFH   SYMBOL    EDATA    BYTE      temp
      000009BBH   SYMBOL    EDATA    WORD      x
      000009BDH   SYMBOL    EDATA    WORD      y
      000009BFH   SYMBOL    EDATA    ---       dat
      000009C3H   SYMBOL    EDATA    WORD      j
      00000A57H   SYMBOL    EDATA    WORD      x
      00000A59H   SYMBOL    EDATA    WORD      y
      00000A5BH   SYMBOL    EDATA    CHAR      dat
      00000A5CH   SYMBOL    EDATA    ---       a
      00000A5FH   SYMBOL    EDATA    BYTE      i
      00000A60H   SYMBOL    EDATA    WORD      x
      00000A62H   SYMBOL    EDATA    WORD      y
      00000A64H   SYMBOL    EDATA    BYTE      dat
      00000A65H   SYMBOL    EDATA    ---       a
      00000A68H   SYMBOL    EDATA    BYTE      i
      000008BFH   SYMBOL    EDATA    WORD      x
      000008C1H   SYMBOL    EDATA    WORD      y
      000008C3H   SYMBOL    EDATA    INT       dat
      000008C5H   SYMBOL    EDATA    ---       a
      000008CAH   SYMBOL    EDATA    BYTE      i
      000008CBH   SYMBOL    EDATA    WORD      x
      000008CDH   SYMBOL    EDATA    WORD      y
      000008CFH   SYMBOL    EDATA    WORD      dat
      000008D1H   SYMBOL    EDATA    ---       a
      000008D6H   SYMBOL    EDATA    BYTE      i
      00000621H   SYMBOL    EDATA    WORD      x
      00000623H   SYMBOL    EDATA    WORD      y
      00000625H   SYMBOL    EDATA    LONG      dat
      00000629H   SYMBOL    EDATA    BYTE      num
      0000062AH   SYMBOL    EDATA    ---       buff
      0000064CH   SYMBOL    EDATA    BYTE      length
      000004DAH   SYMBOL    EDATA    WORD      x
      000004DCH   SYMBOL    EDATA    WORD      y
      000004DEH   SYMBOL    EDATA    FLOAT     dat
      000004E2H   SYMBOL    EDATA    BYTE      num
      000004E3H   SYMBOL    EDATA    BYTE      pointnum
      000004E4H   SYMBOL    EDATA    BYTE      length
      000004E5H   SYMBOL    EDATA    ---       buff
      00000507H   SYMBOL    EDATA    CHAR      start
      00000508H   SYMBOL    EDATA    CHAR      end
      00000509H   SYMBOL    EDATA    CHAR      point

      00FF7A8DH   BLOCK     CODE     ---       LVL=0
      00000CF5H   SYMBOL    EDATA    BYTE      dat
      00FF7A8DH   LINE      CODE     ---       #594
      00FF7A91H   LINE      CODE     ---       #596
      00FF7A94H   LINE      CODE     ---       #597
      00FF7A97H   LINE      CODE     ---       #599
      00FF7A9EH   LINE      CODE     ---       #600
      00FF7AA1H   LINE      CODE     ---       #601
      ---         BLOCKEND  ---      ---       LVL=0
      00000CF6H   SYMBOL    EDATA    BYTE      dat

      00FF7678H   BLOCK     CODE     ---       LVL=0
      00000C69H   SYMBOL    EDATA    WORD      dat
      00FF767CH   BLOCK     CODE     NEAR LAB  LVL=1
      00000C6BH   SYMBOL    EDATA    ---       dat1
      ---         BLOCKEND  ---      ---       LVL=1
      00FF7678H   LINE      CODE     ---       #626
L251 LINKER/LOCATER V4.66.93.0                                                        07/31/2023  12:50:11  PAGE 75


      00FF767CH   LINE      CODE     ---       #627
      00FF767CH   LINE      CODE     ---       #629
      00FF7682H   LINE      CODE     ---       #630
      00FF768AH   LINE      CODE     ---       #631
      00FF768DH   LINE      CODE     ---       #632
      00FF7690H   LINE      CODE     ---       #633
      00FF7697H   LINE      CODE     ---       #634
      00FF769EH   LINE      CODE     ---       #635
      00FF76A1H   LINE      CODE     ---       #636
      ---         BLOCKEND  ---      ---       LVL=0
      00000AF0H   SYMBOL    EDATA    WORD      x1
      00000AF2H   SYMBOL    EDATA    WORD      y1
      00000AF4H   SYMBOL    EDATA    WORD      x2
      00000AF6H   SYMBOL    EDATA    WORD      y2
      00000BC1H   SYMBOL    EDATA    WORD      color
      00000BC3H   SYMBOL    EDATA    WORD      i
      00000BC5H   SYMBOL    EDATA    WORD      j
      00000BC7H   SYMBOL    EDATA    WORD      x
      00000BC9H   SYMBOL    EDATA    WORD      y
      00000BCBH   SYMBOL    EDATA    WORD      color
      00000AF8H   SYMBOL    EDATA    WORD      x
      00000AFAH   SYMBOL    EDATA    WORD      y
      00000AFCH   SYMBOL    EDATA    CHAR      dat
      00000AFDH   SYMBOL    EDATA    BYTE      i
      00000AFEH   SYMBOL    EDATA    BYTE      j
      00000AFFH   SYMBOL    EDATA    BYTE      temp
      000009C5H   SYMBOL    EDATA    WORD      x
      000009C7H   SYMBOL    EDATA    WORD      y
      000009C9H   SYMBOL    EDATA    ---       dat
      000009CDH   SYMBOL    EDATA    WORD      j
      00000A69H   SYMBOL    EDATA    WORD      x
      00000A6BH   SYMBOL    EDATA    WORD      y
      00000A6DH   SYMBOL    EDATA    CHAR      dat
      00000A6EH   SYMBOL    EDATA    ---       a
      00000A71H   SYMBOL    EDATA    BYTE      i
      00000A72H   SYMBOL    EDATA    WORD      x
      00000A74H   SYMBOL    EDATA    WORD      y
      00000A76H   SYMBOL    EDATA    BYTE      dat
      00000A77H   SYMBOL    EDATA    ---       a
      00000A7AH   SYMBOL    EDATA    BYTE      i
      000008D7H   SYMBOL    EDATA    WORD      x
      000008D9H   SYMBOL    EDATA    WORD      y
      000008DBH   SYMBOL    EDATA    INT       dat
      000008DDH   SYMBOL    EDATA    ---       a
      000008E2H   SYMBOL    EDATA    BYTE      i
      000008E3H   SYMBOL    EDATA    WORD      x
      000008E5H   SYMBOL    EDATA    WORD      y
      000008E7H   SYMBOL    EDATA    WORD      dat
      000008E9H   SYMBOL    EDATA    ---       a
      000008EEH   SYMBOL    EDATA    BYTE      i
      0000064DH   SYMBOL    EDATA    WORD      x
      0000064FH   SYMBOL    EDATA    WORD      y
      00000651H   SYMBOL    EDATA    LONG      dat
      00000655H   SYMBOL    EDATA    BYTE      num
      00000656H   SYMBOL    EDATA    ---       buff
      00000678H   SYMBOL    EDATA    BYTE      length
      0000050AH   SYMBOL    EDATA    WORD      x
      0000050CH   SYMBOL    EDATA    WORD      y
      0000050EH   SYMBOL    EDATA    FLOAT     dat
      00000512H   SYMBOL    EDATA    BYTE      num
      00000513H   SYMBOL    EDATA    BYTE      pointnum
      00000514H   SYMBOL    EDATA    BYTE      length
      00000515H   SYMBOL    EDATA    ---       buff
      00000537H   SYMBOL    EDATA    CHAR      start
      00000538H   SYMBOL    EDATA    CHAR      end
L251 LINKER/LOCATER V4.66.93.0                                                        07/31/2023  12:50:11  PAGE 76


      00000539H   SYMBOL    EDATA    CHAR      point

      ---         MODULE    ---      ---       SEEKFREE_MPU6050
      000008EFH   PUBLIC    EDATA    INT       mpu6050_acc_x
      000008F1H   PUBLIC    EDATA    INT       mpu6050_acc_y
      000008F3H   PUBLIC    EDATA    INT       mpu6050_acc_z
      000008F5H   PUBLIC    EDATA    INT       mpu6050_gyro_x
      000008F7H   PUBLIC    EDATA    INT       mpu6050_gyro_y
      000008F9H   PUBLIC    EDATA    INT       mpu6050_gyro_z
      000000D0H   SFRSYM    DATA     BYTE      PSW
      0000009DH   SFRSYM    DATA     BYTE      IRCBAND
      00000097H   SFRSYM    DATA     BYTE      AUXR2
      000000EFH   SFRSYM    DATA     BYTE      AUXINTIF
      000000FDH   SFRSYM    DATA     BYTE      S4CON
      000000ACH   SFRSYM    DATA     BYTE      S3CON
      0000009AH   SFRSYM    DATA     BYTE      S2CON
      000000B7H   SFRSYM    DATA     BYTE      IPH
      000000CDH   SFRSYM    DATA     BYTE      SPSTAT
      000000DDH   SFRSYM    DATA     BYTE      T4T3M
      000000C1H   SFRSYM    DATA     BYTE      WDT_CONTR
      000000DFH   SFRSYM    DATA     BYTE      IP3
      000000F4H   SFRSYM    DATA     BYTE      USBCON
      000000B5H   SFRSYM    DATA     BYTE      IP2
      000000FFH   SFRSYM    DATA     BYTE      RSTCFG
      000000F9H   SFRSYM    DATA     BYTE      LINICR
      0000008EH   SFRSYM    DATA     BYTE      AUXR
      000000AFH   SFRSYM    DATA     BYTE      IE2
      00000088H   SFRSYM    DATA     BYTE      TCON
      000000C0H.1 SFRSYM    DATA     BIT       P41
      00000098H   SFRSYM    DATA     BYTE      SCON
      000000C0H.0 SFRSYM    DATA     BIT       P40
      000000F1H   SFRSYM    DATA     BYTE      CANICR
      00000087H   SFRSYM    DATA     BYTE      PCON
      000000BCH   SFRSYM    DATA     BYTE      ADC_CONTR
      000000E7H   SFRSYM    DATA     BYTE      CMPCR2
      000000E6H   SFRSYM    DATA     BYTE      CMPCR1
      000000B8H   SFRSYM    DATA     BYTE      IP
      0000008FH   SFRSYM    DATA     BYTE      INTCLKO
      000000EEH   SFRSYM    DATA     BYTE      IP3H
      000000B6H   SFRSYM    DATA     BYTE      IP2H
      000000A8H   SFRSYM    DATA     BYTE      IE
      000000BBH   SFRSYM    DATA     BYTE      P_SW3
      000000BAH   SFRSYM    DATA     BYTE      P_SW2
      000000A2H   SFRSYM    DATA     BYTE      P_SW1
      000000CEH   SFRSYM    DATA     BYTE      SPCTL
      000000F8H   SFRSYM    DATA     BYTE      P7
      000000E8H   SFRSYM    DATA     BYTE      P6
      000000C8H   SFRSYM    DATA     BYTE      P5
      000000C0H   SFRSYM    DATA     BYTE      P4
      000000B0H   SFRSYM    DATA     BYTE      P3
      000000A0H   SFRSYM    DATA     BYTE      P2
      00000090H   SFRSYM    DATA     BYTE      P1
      00000080H   SFRSYM    DATA     BYTE      P0
      00FF7ADFH   SYMBOL    CODE     ---       mpu6050_simiic_start
      00FF7A4DH   SYMBOL    CODE     ---       mpu6050_simiic_stop
      00FF771BH   SYMBOL    CODE     ---       mpu6050_simiic_sendack
      00FF78D6H   SYMBOL    CODE     ---       mpu6050_simiic_delay

      00FF78D6H   BLOCK     CODE     ---       LVL=0
      00000CDBH   SYMBOL    EDATA    WORD      j
      00FF78D6H   LINE      CODE     ---       #52
      00FF78D6H   LINE      CODE     ---       #53
      00FF78D6H   LINE      CODE     ---       #54
      00FF78DCH   LINE      CODE     ---       #55
      00FF78F2H   LINE      CODE     ---       #56
L251 LINKER/LOCATER V4.66.93.0                                                        07/31/2023  12:50:11  PAGE 77


      ---         BLOCKEND  ---      ---       LVL=0

      00FF7ADFH   BLOCK     CODE     ---       LVL=0
      00FF7ADFH   LINE      CODE     ---       #59
      00FF7ADFH   LINE      CODE     ---       #61
      00FF7AE2H   LINE      CODE     ---       #62
      00FF7AE5H   LINE      CODE     ---       #63
      00FF7AE8H   LINE      CODE     ---       #64
      00FF7AEBH   LINE      CODE     ---       #65
      00FF7AEEH   LINE      CODE     ---       #66
      00FF7AF1H   LINE      CODE     ---       #67
      ---         BLOCKEND  ---      ---       LVL=0

      00FF7A4DH   BLOCK     CODE     ---       LVL=0
      00FF7A4DH   LINE      CODE     ---       #70
      00FF7A4DH   LINE      CODE     ---       #72
      00FF7A50H   LINE      CODE     ---       #73
      00FF7A53H   LINE      CODE     ---       #74
      00FF7A56H   LINE      CODE     ---       #75
      00FF7A59H   LINE      CODE     ---       #76
      00FF7A5CH   LINE      CODE     ---       #77
      00FF7A5FH   LINE      CODE     ---       #78
      00FF7A62H   LINE      CODE     ---       #79
      ---         BLOCKEND  ---      ---       LVL=0

      00FF771BH   BLOCK     CODE     ---       LVL=0
      00000CF7H   SYMBOL    EDATA    BYTE      ack_dat
      00FF771BH   LINE      CODE     ---       #83
      00FF771FH   LINE      CODE     ---       #85
      00FF7722H   LINE      CODE     ---       #86
      00FF7725H   LINE      CODE     ---       #87
      00FF7733H   LINE      CODE     ---       #88
      00FF7736H   LINE      CODE     ---       #90
      00FF7739H   LINE      CODE     ---       #91
      00FF773CH   LINE      CODE     ---       #92
      00FF773FH   LINE      CODE     ---       #93
      00FF7742H   LINE      CODE     ---       #94
      ---         BLOCKEND  ---      ---       LVL=0
      00000CDDH   SYMBOL    EDATA    BYTE      c
      00000CDEH   SYMBOL    EDATA    BYTE      i
      00000C92H   SYMBOL    EDATA    BYTE      ack_x
      00000C93H   SYMBOL    EDATA    BYTE      i
      00000C94H   SYMBOL    EDATA    BYTE      c
      00000C95H   SYMBOL    EDATA    BYTE      dev_add
      00000C96H   SYMBOL    EDATA    BYTE      reg
      00000C97H   SYMBOL    EDATA    BYTE      dat
      00000C98H   SYMBOL    EDATA    BYTE      dev_add
      00000C99H   SYMBOL    EDATA    BYTE      reg
      00000C9AH   SYMBOL    EDATA    BYTE      dat
      00000B3BH   SYMBOL    EDATA    BYTE      dev_add
      00000B3CH   SYMBOL    EDATA    BYTE      reg
      00000B3DH   SYMBOL    EDATA    ---       dat_add
      00000B41H   SYMBOL    EDATA    BYTE      num
      00000BCDH   SYMBOL    EDATA    ---       dat
      00000BD3H   SYMBOL    EDATA    ---       dat

      ---         MODULE    ---      ---       SEEKFREE_OLED
      00FF75C2H   PUBLIC    CODE     ---       oled_set_pos
      00FF7259H   PUBLIC    CODE     ---       oled_wrcmd
      00FF72A5H   PUBLIC    CODE     ---       oled_wrdat
      00FF7557H   PUBLIC    CODE     ---       oled_set_pos_spi
      00FF7AA2H   PUBLIC    CODE     ---       oled_wrcmd_spi
      00FF7AB7H   PUBLIC    CODE     ---       oled_wrdat_spi
      0000053AH   PUBLIC    EDATA    BYTE      ?oled_printf_float?BYTE
      0000056AH   PUBLIC    EDATA    BYTE      ?oled_printf_float_spi?BYTE
L251 LINKER/LOCATER V4.66.93.0                                                        07/31/2023  12:50:11  PAGE 78


      000000D0H   SFRSYM    DATA     BYTE      PSW
      0000009DH   SFRSYM    DATA     BYTE      IRCBAND
      00000097H   SFRSYM    DATA     BYTE      AUXR2
      000000EFH   SFRSYM    DATA     BYTE      AUXINTIF
      000000FDH   SFRSYM    DATA     BYTE      S4CON
      000000ACH   SFRSYM    DATA     BYTE      S3CON
      0000009AH   SFRSYM    DATA     BYTE      S2CON
      000000B7H   SFRSYM    DATA     BYTE      IPH
      000000CDH   SFRSYM    DATA     BYTE      SPSTAT
      000000DDH   SFRSYM    DATA     BYTE      T4T3M
      000000C1H   SFRSYM    DATA     BYTE      WDT_CONTR
      000000DFH   SFRSYM    DATA     BYTE      IP3
      000000F4H   SFRSYM    DATA     BYTE      USBCON
      000000B5H   SFRSYM    DATA     BYTE      IP2
      000000FFH   SFRSYM    DATA     BYTE      RSTCFG
      000000F9H   SFRSYM    DATA     BYTE      LINICR
      0000008EH   SFRSYM    DATA     BYTE      AUXR
      000000AFH   SFRSYM    DATA     BYTE      IE2
      000000A0H.5 SFRSYM    DATA     BIT       P25
      00000088H   SFRSYM    DATA     BYTE      TCON
      000000A0H.3 SFRSYM    DATA     BIT       P23
      00000098H   SFRSYM    DATA     BYTE      SCON
      000000A0H.2 SFRSYM    DATA     BIT       P22
      000000A0H.1 SFRSYM    DATA     BIT       P21
      000000A0H.0 SFRSYM    DATA     BIT       P20
      000000F1H   SFRSYM    DATA     BYTE      CANICR
      00000087H   SFRSYM    DATA     BYTE      PCON
      000000BCH   SFRSYM    DATA     BYTE      ADC_CONTR
      000000E7H   SFRSYM    DATA     BYTE      CMPCR2
      000000E6H   SFRSYM    DATA     BYTE      CMPCR1
      000000B8H   SFRSYM    DATA     BYTE      IP
      0000008FH   SFRSYM    DATA     BYTE      INTCLKO
      000000EEH   SFRSYM    DATA     BYTE      IP3H
      000000B6H   SFRSYM    DATA     BYTE      IP2H
      000000A8H   SFRSYM    DATA     BYTE      IE
      000000BBH   SFRSYM    DATA     BYTE      P_SW3
      000000BAH   SFRSYM    DATA     BYTE      P_SW2
      000000A2H   SFRSYM    DATA     BYTE      P_SW1
      000000CEH   SFRSYM    DATA     BYTE      SPCTL
      000000F8H   SFRSYM    DATA     BYTE      P7
      000000E8H   SFRSYM    DATA     BYTE      P6
      000000C8H   SFRSYM    DATA     BYTE      P5
      000000C0H   SFRSYM    DATA     BYTE      P4
      000000B0H   SFRSYM    DATA     BYTE      P3
      000000A0H   SFRSYM    DATA     BYTE      P2
      00000090H   SFRSYM    DATA     BYTE      P1
      00000080H   SFRSYM    DATA     BYTE      P0

      00FF72A5H   BLOCK     CODE     ---       LVL=0
      00000CDFH   SYMBOL    EDATA    BYTE      dat
      00FF72A9H   BLOCK     CODE     NEAR LAB  LVL=1
      00000CE0H   SYMBOL    EDATA    BYTE      i
      ---         BLOCKEND  ---      ---       LVL=1
      00FF72A5H   LINE      CODE     ---       #47
      00FF72A9H   LINE      CODE     ---       #48
      00FF72A9H   LINE      CODE     ---       #49
      00FF72AFH   LINE      CODE     ---       #51
      00FF72B2H   LINE      CODE     ---       #52
      00FF72B5H   LINE      CODE     ---       #53
      00FF72B8H   LINE      CODE     ---       #54
      00FF72BAH   LINE      CODE     ---       #56
      00FF72C6H   LINE      CODE     ---       #57
      00FF72C9H   LINE      CODE     ---       #58
      00FF72CCH   LINE      CODE     ---       #60
      00FF72CFH   LINE      CODE     ---       #61
L251 LINKER/LOCATER V4.66.93.0                                                        07/31/2023  12:50:11  PAGE 79


      00FF72D9H   LINE      CODE     ---       #62
      00FF72EDH   LINE      CODE     ---       #63
      00FF72F0H   LINE      CODE     ---       #64
      ---         BLOCKEND  ---      ---       LVL=0

      00FF7259H   BLOCK     CODE     ---       LVL=0
      00000CE1H   SYMBOL    EDATA    BYTE      cmd
      00FF725DH   BLOCK     CODE     NEAR LAB  LVL=1
      00000CE2H   SYMBOL    EDATA    BYTE      i
      ---         BLOCKEND  ---      ---       LVL=1
      00FF7259H   LINE      CODE     ---       #98
      00FF725DH   LINE      CODE     ---       #99
      00FF725DH   LINE      CODE     ---       #100
      00FF7263H   LINE      CODE     ---       #102
      00FF7266H   LINE      CODE     ---       #103
      00FF7269H   LINE      CODE     ---       #104
      00FF726CH   LINE      CODE     ---       #106
      00FF726EH   LINE      CODE     ---       #108
      00FF727AH   LINE      CODE     ---       #109
      00FF727DH   LINE      CODE     ---       #110
      00FF7280H   LINE      CODE     ---       #112
      00FF7283H   LINE      CODE     ---       #113
      00FF728DH   LINE      CODE     ---       #114
      00FF72A1H   LINE      CODE     ---       #115
      00FF72A4H   LINE      CODE     ---       #116
      ---         BLOCKEND  ---      ---       LVL=0
      00000B00H   SYMBOL    EDATA    WORD      hex
      00000B02H   SYMBOL    EDATA    ---       Print
      00000B06H   SYMBOL    EDATA    BYTE      hexcheck
      00000B07H   SYMBOL    EDATA    BYTE      TEMP

      00FF75C2H   BLOCK     CODE     ---       LVL=0
      00000CE3H   SYMBOL    EDATA    BYTE      x
      00000CE4H   SYMBOL    EDATA    BYTE      y
      00FF75C2H   LINE      CODE     ---       #205
      00FF75CAH   LINE      CODE     ---       #207
      00FF75D5H   LINE      CODE     ---       #208
      00FF75EBH   LINE      CODE     ---       #209
      00FF75F6H   LINE      CODE     ---       #210
      ---         BLOCKEND  ---      ---       LVL=0
      00000C9BH   SYMBOL    EDATA    BYTE      bmp_data
      00000C9CH   SYMBOL    EDATA    BYTE      y
      00000C9DH   SYMBOL    EDATA    BYTE      x
      00000C9EH   SYMBOL    EDATA    BYTE      x
      00000C9FH   SYMBOL    EDATA    BYTE      y
      00000CA0H   SYMBOL    EDATA    BYTE      data1
      00000CE5H   SYMBOL    EDATA    BYTE      x
      00000CE6H   SYMBOL    EDATA    BYTE      y
      00000A7BH   SYMBOL    EDATA    BYTE      x
      00000A7CH   SYMBOL    EDATA    BYTE      y
      00000A7DH   SYMBOL    EDATA    ---       ch
      00000A81H   SYMBOL    EDATA    BYTE      c
      00000A82H   SYMBOL    EDATA    BYTE      i
      00000A83H   SYMBOL    EDATA    BYTE      j
      00000A84H   SYMBOL    EDATA    BYTE      x
      00000A85H   SYMBOL    EDATA    BYTE      y
      00000A86H   SYMBOL    EDATA    ---       ch
      00000A8AH   SYMBOL    EDATA    BYTE      c
      00000A8BH   SYMBOL    EDATA    BYTE      i
      00000A8CH   SYMBOL    EDATA    BYTE      j
      00000913H   SYMBOL    EDATA    BYTE      x
      00000914H   SYMBOL    EDATA    BYTE      y
      00000915H   SYMBOL    EDATA    WORD      num
      00000917H   SYMBOL    EDATA    ---       ch
      0000091EH   SYMBOL    EDATA    BYTE      x
L251 LINKER/LOCATER V4.66.93.0                                                        07/31/2023  12:50:11  PAGE 80


      0000091FH   SYMBOL    EDATA    BYTE      y
      00000920H   SYMBOL    EDATA    INT       num
      00000922H   SYMBOL    EDATA    ---       ch
      00000679H   SYMBOL    EDATA    WORD      x
      0000067BH   SYMBOL    EDATA    WORD      y
      0000067DH   SYMBOL    EDATA    LONG      dat
      00000681H   SYMBOL    EDATA    BYTE      num
      00000682H   SYMBOL    EDATA    ---       buff
      000006A4H   SYMBOL    EDATA    BYTE      length
      0000053AH   SYMBOL    EDATA    WORD      x
      0000053CH   SYMBOL    EDATA    WORD      y
      0000053EH   SYMBOL    EDATA    FLOAT     dat
      00000542H   SYMBOL    EDATA    BYTE      num
      00000543H   SYMBOL    EDATA    BYTE      pointnum
      00000544H   SYMBOL    EDATA    BYTE      length
      00000545H   SYMBOL    EDATA    ---       buff
      00000567H   SYMBOL    EDATA    CHAR      start
      00000568H   SYMBOL    EDATA    CHAR      end
      00000569H   SYMBOL    EDATA    CHAR      point
      00000789H   SYMBOL    EDATA    WORD      high
      0000078BH   SYMBOL    EDATA    WORD      width
      0000078DH   SYMBOL    EDATA    ---       p
      00000791H   SYMBOL    EDATA    BYTE      value
      00000792H   SYMBOL    EDATA    WORD      i
      00000794H   SYMBOL    EDATA    WORD      j
      00000796H   SYMBOL    EDATA    WORD      temp
      00000798H   SYMBOL    EDATA    WORD      temp1
      0000079AH   SYMBOL    EDATA    BYTE      dat
      000007E9H   SYMBOL    EDATA    BYTE      x
      000007EAH   SYMBOL    EDATA    BYTE      y
      000007EBH   SYMBOL    EDATA    BYTE      size
      000007ECH   SYMBOL    EDATA    ---       p
      000007F0H   SYMBOL    EDATA    BYTE      len
      000007F1H   SYMBOL    EDATA    WORD      i
      000007F3H   SYMBOL    EDATA    WORD      j
      000007F5H   SYMBOL    EDATA    WORD      k

      00FF7AB7H   BLOCK     CODE     ---       LVL=0
      00000CF8H   SYMBOL    EDATA    BYTE      dat
      00FF7AB7H   LINE      CODE     ---       #534
      00FF7ABBH   LINE      CODE     ---       #536
      00FF7ABEH   LINE      CODE     ---       #537
      00FF7AC1H   LINE      CODE     ---       #538
      00FF7AC8H   LINE      CODE     ---       #539
      00FF7ACBH   LINE      CODE     ---       #542
      ---         BLOCKEND  ---      ---       LVL=0

      00FF7AA2H   BLOCK     CODE     ---       LVL=0
      00000CF9H   SYMBOL    EDATA    BYTE      cmd
      00FF7AA2H   LINE      CODE     ---       #576
      00FF7AA6H   LINE      CODE     ---       #578
      00FF7AA9H   LINE      CODE     ---       #579
      00FF7AACH   LINE      CODE     ---       #580
      00FF7AB3H   LINE      CODE     ---       #581
      00FF7AB6H   LINE      CODE     ---       #582
      ---         BLOCKEND  ---      ---       LVL=0
      00000B08H   SYMBOL    EDATA    WORD      hex
      00000B0AH   SYMBOL    EDATA    ---       Print
      00000B0EH   SYMBOL    EDATA    BYTE      hexcheck
      00000B0FH   SYMBOL    EDATA    BYTE      TEMP

      00FF7557H   BLOCK     CODE     ---       LVL=0
      00000CE7H   SYMBOL    EDATA    BYTE      x
      00000CE8H   SYMBOL    EDATA    BYTE      y
      00FF7557H   LINE      CODE     ---       #672
L251 LINKER/LOCATER V4.66.93.0                                                        07/31/2023  12:50:11  PAGE 81


      00FF755FH   LINE      CODE     ---       #676
      00FF756AH   LINE      CODE     ---       #677
      00FF7581H   LINE      CODE     ---       #678
      00FF758CH   LINE      CODE     ---       #679
      ---         BLOCKEND  ---      ---       LVL=0
      00000CA1H   SYMBOL    EDATA    BYTE      bmp_data
      00000CA2H   SYMBOL    EDATA    BYTE      y
      00000CA3H   SYMBOL    EDATA    BYTE      x
      00000CA4H   SYMBOL    EDATA    BYTE      x
      00000CA5H   SYMBOL    EDATA    BYTE      y
      00000CA6H   SYMBOL    EDATA    BYTE      data1
      00000CE9H   SYMBOL    EDATA    BYTE      x
      00000CEAH   SYMBOL    EDATA    BYTE      y
      00000A8DH   SYMBOL    EDATA    BYTE      x
      00000A8EH   SYMBOL    EDATA    BYTE      y
      00000A8FH   SYMBOL    EDATA    ---       ch
      00000A93H   SYMBOL    EDATA    BYTE      c
      00000A94H   SYMBOL    EDATA    BYTE      i
      00000A95H   SYMBOL    EDATA    BYTE      j
      00000A96H   SYMBOL    EDATA    BYTE      x
      00000A97H   SYMBOL    EDATA    BYTE      y
      00000A98H   SYMBOL    EDATA    ---       ch
      00000A9CH   SYMBOL    EDATA    BYTE      c
      00000A9DH   SYMBOL    EDATA    BYTE      i
      00000A9EH   SYMBOL    EDATA    BYTE      j
      00000929H   SYMBOL    EDATA    BYTE      x
      0000092AH   SYMBOL    EDATA    BYTE      y
      0000092BH   SYMBOL    EDATA    WORD      num
      0000092DH   SYMBOL    EDATA    ---       ch
      00000934H   SYMBOL    EDATA    BYTE      x
      00000935H   SYMBOL    EDATA    BYTE      y
      00000936H   SYMBOL    EDATA    INT       num
      00000938H   SYMBOL    EDATA    ---       ch
      000006A5H   SYMBOL    EDATA    WORD      x
      000006A7H   SYMBOL    EDATA    WORD      y
      000006A9H   SYMBOL    EDATA    LONG      dat
      000006ADH   SYMBOL    EDATA    BYTE      num
      000006AEH   SYMBOL    EDATA    ---       buff
      000006D0H   SYMBOL    EDATA    BYTE      length
      0000056AH   SYMBOL    EDATA    WORD      x
      0000056CH   SYMBOL    EDATA    WORD      y
      0000056EH   SYMBOL    EDATA    FLOAT     dat
      00000572H   SYMBOL    EDATA    BYTE      num
      00000573H   SYMBOL    EDATA    BYTE      pointnum
      00000574H   SYMBOL    EDATA    BYTE      length
      00000575H   SYMBOL    EDATA    ---       buff
      00000597H   SYMBOL    EDATA    CHAR      start
      00000598H   SYMBOL    EDATA    CHAR      end
      00000599H   SYMBOL    EDATA    CHAR      point
      0000079BH   SYMBOL    EDATA    WORD      high
      0000079DH   SYMBOL    EDATA    WORD      width
      0000079FH   SYMBOL    EDATA    ---       p
      000007A3H   SYMBOL    EDATA    BYTE      value
      000007A4H   SYMBOL    EDATA    WORD      i
      000007A6H   SYMBOL    EDATA    WORD      j
      000007A8H   SYMBOL    EDATA    WORD      temp
      000007AAH   SYMBOL    EDATA    WORD      temp1
      000007ACH   SYMBOL    EDATA    BYTE      dat
      000007F7H   SYMBOL    EDATA    BYTE      x
      000007F8H   SYMBOL    EDATA    BYTE      y
      000007F9H   SYMBOL    EDATA    BYTE      size
      000007FAH   SYMBOL    EDATA    ---       p
      000007FEH   SYMBOL    EDATA    BYTE      len
      000007FFH   SYMBOL    EDATA    WORD      i
      00000801H   SYMBOL    EDATA    WORD      j
L251 LINKER/LOCATER V4.66.93.0                                                        07/31/2023  12:50:11  PAGE 82


      00000803H   SYMBOL    EDATA    WORD      k

      ---         MODULE    ---      ---       SEEKFREE_PRINTF
      00FF58D7H   PUBLIC    CODE     ---       number_conversion_ascii
      00FF41DDH   PUBLIC    CODE     ---       zf_sprintf
      00FF632BH   PUBLIC    CODE     ---       printf_reverse_order
      00000750H   PUBLIC    EDATA    BYTE      ?number_conversion_ascii?BYTE
      00000344H   PUBLIC    EDATA    BYTE      ?zf_sprintf?BYTE
      000000D0H   SFRSYM    DATA     BYTE      PSW
      0000009DH   SFRSYM    DATA     BYTE      IRCBAND
      00000097H   SFRSYM    DATA     BYTE      AUXR2
      000000EFH   SFRSYM    DATA     BYTE      AUXINTIF
      000000FDH   SFRSYM    DATA     BYTE      S4CON
      000000ACH   SFRSYM    DATA     BYTE      S3CON
      0000009AH   SFRSYM    DATA     BYTE      S2CON
      000000B7H   SFRSYM    DATA     BYTE      IPH
      000000CDH   SFRSYM    DATA     BYTE      SPSTAT
      000000DDH   SFRSYM    DATA     BYTE      T4T3M
      000000C1H   SFRSYM    DATA     BYTE      WDT_CONTR
      000000DFH   SFRSYM    DATA     BYTE      IP3
      000000F4H   SFRSYM    DATA     BYTE      USBCON
      000000B5H   SFRSYM    DATA     BYTE      IP2
      000000FFH   SFRSYM    DATA     BYTE      RSTCFG
      000000F9H   SFRSYM    DATA     BYTE      LINICR
      0000008EH   SFRSYM    DATA     BYTE      AUXR
      000000AFH   SFRSYM    DATA     BYTE      IE2
      00000088H   SFRSYM    DATA     BYTE      TCON
      00000098H   SFRSYM    DATA     BYTE      SCON
      000000F1H   SFRSYM    DATA     BYTE      CANICR
      00000087H   SFRSYM    DATA     BYTE      PCON
      000000BCH   SFRSYM    DATA     BYTE      ADC_CONTR
      000000E7H   SFRSYM    DATA     BYTE      CMPCR2
      000000E6H   SFRSYM    DATA     BYTE      CMPCR1
      000000B8H   SFRSYM    DATA     BYTE      IP
      0000008FH   SFRSYM    DATA     BYTE      INTCLKO
      000000EEH   SFRSYM    DATA     BYTE      IP3H
      000000B6H   SFRSYM    DATA     BYTE      IP2H
      000000A8H   SFRSYM    DATA     BYTE      IE
      000000BBH   SFRSYM    DATA     BYTE      P_SW3
      000000BAH   SFRSYM    DATA     BYTE      P_SW2
      000000A2H   SFRSYM    DATA     BYTE      P_SW1
      000000CEH   SFRSYM    DATA     BYTE      SPCTL
      000000F8H   SFRSYM    DATA     BYTE      P7
      000000E8H   SFRSYM    DATA     BYTE      P6
      000000C8H   SFRSYM    DATA     BYTE      P5
      000000C0H   SFRSYM    DATA     BYTE      P4
      000000B0H   SFRSYM    DATA     BYTE      P3
      000000A0H   SFRSYM    DATA     BYTE      P2
      00000090H   SFRSYM    DATA     BYTE      P1
      00000080H   SFRSYM    DATA     BYTE      P0

      00FF58D7H   BLOCK     CODE     ---       LVL=0
      00000750H   SYMBOL    EDATA    DWORD     dat
      00000754H   SYMBOL    EDATA    ---       p
      00000758H   SYMBOL    EDATA    BYTE      neg_type
      00000759H   SYMBOL    EDATA    BYTE      radix
      00FF58E3H   BLOCK     CODE     NEAR LAB  LVL=1
      0000075AH   SYMBOL    EDATA    LONG      neg_dat
      0000075EH   SYMBOL    EDATA    DWORD     pos_dat
      00000762H   SYMBOL    EDATA    BYTE      temp_data
      00000763H   SYMBOL    EDATA    BYTE      valid_num
      ---         BLOCKEND  ---      ---       LVL=1
      00FF58D7H   LINE      CODE     ---       #29
      00FF58E3H   LINE      CODE     ---       #30
      00FF58E3H   LINE      CODE     ---       #33
L251 LINKER/LOCATER V4.66.93.0                                                        07/31/2023  12:50:11  PAGE 83


      00FF58E8H   LINE      CODE     ---       #34
      00FF58EDH   LINE      CODE     ---       #36
      00FF58F6H   LINE      CODE     ---       #38
      00FF58FEH   LINE      CODE     ---       #39
      00FF5916H   LINE      CODE     ---       #40
      00FF5916H   LINE      CODE     ---       #42
      00FF5932H   LINE      CODE     ---       #43
      00FF5945H   LINE      CODE     ---       #44
      00FF5952H   LINE      CODE     ---       #46
      00FF595AH   LINE      CODE     ---       #47
      00FF5964H   LINE      CODE     ---       #48
      00FF5966H   LINE      CODE     ---       #49
      00FF5969H   LINE      CODE     ---       #52
      00FF5971H   LINE      CODE     ---       #53
      00FF5971H   LINE      CODE     ---       #55
      00FF5986H   LINE      CODE     ---       #56
      00FF599EH   LINE      CODE     ---       #57
      00FF59AAH   LINE      CODE     ---       #59
      00FF59B5H   LINE      CODE     ---       #61
      00FF59C8H   LINE      CODE     ---       #62
      00FF59D5H   LINE      CODE     ---       #64
      00FF59DDH   LINE      CODE     ---       #65
      00FF59E7H   LINE      CODE     ---       #66
      00FF59E9H   LINE      CODE     ---       #67
      00FF59E9H   LINE      CODE     ---       #68
      00FF59EDH   LINE      CODE     ---       #69
      ---         BLOCKEND  ---      ---       LVL=0

      00FF632BH   BLOCK     CODE     ---       LVL=0
      0000082EH   SYMBOL    EDATA    ---       d_buff
      00000832H   SYMBOL    EDATA    DWORD     len
      00FF6333H   BLOCK     CODE     NEAR LAB  LVL=1
      00000836H   SYMBOL    EDATA    DWORD     i
      0000083AH   SYMBOL    EDATA    CHAR      temp_data
      ---         BLOCKEND  ---      ---       LVL=1
      00FF632BH   LINE      CODE     ---       #71
      00FF6333H   LINE      CODE     ---       #72
      00FF6333H   LINE      CODE     ---       #75
      00FF633BH   LINE      CODE     ---       #77
      00FF635AH   LINE      CODE     ---       #78
      00FF6384H   LINE      CODE     ---       #79
      00FF6397H   LINE      CODE     ---       #80
      00FF63BFH   LINE      CODE     ---       #81
      ---         BLOCKEND  ---      ---       LVL=0

      00FF41DDH   BLOCK     CODE     ---       LVL=0
      00000344H   SYMBOL    EDATA    ---       buff
      00000348H   SYMBOL    EDATA    ---       format
      00FF41E5H   BLOCK     CODE     NEAR LAB  LVL=1
      0000034CH   SYMBOL    EDATA    DWORD     buff_len
      00000350H   SYMBOL    EDATA    ---       arg
      00FF41FAH   BLOCK     CODE     NEAR LAB  LVL=2
      00000354H   SYMBOL    EDATA    CHAR      ret
      00FF432FH   BLOCK     CODE     NEAR LAB  LVL=3
      00000355H   SYMBOL    EDATA    CHAR      ch
      ---         BLOCKEND  ---      ---       LVL=3
      00FF436EH   BLOCK     CODE     NEAR LAB  LVL=3
      00000355H   SYMBOL    EDATA    ---       vstr
      00000376H   SYMBOL    EDATA    LONG      ival
      0000037AH   SYMBOL    EDATA    BYTE      vlen
      ---         BLOCKEND  ---      ---       LVL=3
      00FF440FH   BLOCK     CODE     NEAR LAB  LVL=3
      00000355H   SYMBOL    EDATA    ---       vstr
      00000376H   SYMBOL    EDATA    FLOAT     ival
      0000037AH   SYMBOL    EDATA    BYTE      vlen
L251 LINKER/LOCATER V4.66.93.0                                                        07/31/2023  12:50:11  PAGE 84


      ---         BLOCKEND  ---      ---       LVL=3
      00FF45B0H   BLOCK     CODE     NEAR LAB  LVL=3
      00000355H   SYMBOL    EDATA    ---       vstr
      00000376H   SYMBOL    EDATA    DWORD     ival
      0000037AH   SYMBOL    EDATA    BYTE      vlen
      ---         BLOCKEND  ---      ---       LVL=3
      00FF4628H   BLOCK     CODE     NEAR LAB  LVL=3
      00000355H   SYMBOL    EDATA    ---       vstr
      00000376H   SYMBOL    EDATA    DWORD     ival
      0000037AH   SYMBOL    EDATA    BYTE      vlen
      ---         BLOCKEND  ---      ---       LVL=3
      00FF46A0H   BLOCK     CODE     NEAR LAB  LVL=3
      00000355H   SYMBOL    EDATA    ---       vstr
      00000376H   SYMBOL    EDATA    DWORD     ival
      0000037AH   SYMBOL    EDATA    BYTE      vlen
      ---         BLOCKEND  ---      ---       LVL=3
      00FF4718H   BLOCK     CODE     NEAR LAB  LVL=3
      00000355H   SYMBOL    EDATA    ---       pc
      ---         BLOCKEND  ---      ---       LVL=3
      00FF4772H   BLOCK     CODE     NEAR LAB  LVL=3
      00000355H   SYMBOL    EDATA    ---       vstr
      00000376H   SYMBOL    EDATA    DWORD     ival
      ---         BLOCKEND  ---      ---       LVL=3
      ---         BLOCKEND  ---      ---       LVL=2
      ---         BLOCKEND  ---      ---       LVL=1
      00FF41DDH   LINE      CODE     ---       #216
      00FF41E5H   LINE      CODE     ---       #217
      00FF41E5H   LINE      CODE     ---       #218
      00FF41EBH   LINE      CODE     ---       #220
      00FF41F7H   LINE      CODE     ---       #222
      00FF41FAH   LINE      CODE     ---       #223
      00FF41FAH   LINE      CODE     ---       #224
      00FF4205H   LINE      CODE     ---       #225
      00FF4211H   LINE      CODE     ---       #227
      00FF432CH   LINE      CODE     ---       #229
      00FF432CH   LINE      CODE     ---       #233
      00FF432FH   LINE      CODE     ---       #236
      00FF432FH   LINE      CODE     ---       #237
      00FF432FH   LINE      CODE     ---       #238
      00FF4348H   LINE      CODE     ---       #239
      00FF4353H   LINE      CODE     ---       #240
      00FF435DH   LINE      CODE     ---       #241
      00FF436BH   LINE      CODE     ---       #243
      00FF436EH   LINE      CODE     ---       #246
      00FF436EH   LINE      CODE     ---       #247
      00FF436EH   LINE      CODE     ---       #248
      00FF436EH   LINE      CODE     ---       #250
      00FF4387H   LINE      CODE     ---       #251
      00FF439EH   LINE      CODE     ---       #253
      00FF43A8H   LINE      CODE     ---       #255
      00FF43B9H   LINE      CODE     ---       #256
      00FF43C6H   LINE      CODE     ---       #257
      00FF43C6H   LINE      CODE     ---       #258
      00FF43D5H   LINE      CODE     ---       #259
      00FF43EAH   LINE      CODE     ---       #260
      00FF43FAH   LINE      CODE     ---       #261
      00FF440CH   LINE      CODE     ---       #264
      00FF440FH   LINE      CODE     ---       #266
      00FF440FH   LINE      CODE     ---       #267
      00FF440FH   LINE      CODE     ---       #268
      00FF440FH   LINE      CODE     ---       #270
      00FF4428H   LINE      CODE     ---       #271
      00FF4442H   LINE      CODE     ---       #273
      00FF444DH   LINE      CODE     ---       #275
      00FF445EH   LINE      CODE     ---       #276
L251 LINKER/LOCATER V4.66.93.0                                                        07/31/2023  12:50:11  PAGE 85


      00FF446BH   LINE      CODE     ---       #277
      00FF446BH   LINE      CODE     ---       #278
      00FF447AH   LINE      CODE     ---       #279
      00FF448FH   LINE      CODE     ---       #280
      00FF449FH   LINE      CODE     ---       #281
      00FF44B1H   LINE      CODE     ---       #283
      00FF44D5H   LINE      CODE     ---       #284
      00FF44D9H   LINE      CODE     ---       #286
      00FF44F3H   LINE      CODE     ---       #287
      00FF44F5H   LINE      CODE     ---       #290
      00FF4519H   LINE      CODE     ---       #291
      00FF451FH   LINE      CODE     ---       #292
      00FF451FH   LINE      CODE     ---       #294
      00FF4521H   LINE      CODE     ---       #296
      00FF4532H   LINE      CODE     ---       #297
      00FF453FH   LINE      CODE     ---       #298
      00FF4549H   LINE      CODE     ---       #300
      00FF455AH   LINE      CODE     ---       #301
      00FF4567H   LINE      CODE     ---       #303
      00FF4576H   LINE      CODE     ---       #304
      00FF458BH   LINE      CODE     ---       #305
      00FF459BH   LINE      CODE     ---       #306
      00FF45ADH   LINE      CODE     ---       #308
      00FF45B0H   LINE      CODE     ---       #311
      00FF45B0H   LINE      CODE     ---       #312
      00FF45B0H   LINE      CODE     ---       #314
      00FF45C9H   LINE      CODE     ---       #315
      00FF45DFH   LINE      CODE     ---       #317
      00FF45EEH   LINE      CODE     ---       #318
      00FF4603H   LINE      CODE     ---       #319
      00FF4613H   LINE      CODE     ---       #320
      00FF4625H   LINE      CODE     ---       #321
      00FF4628H   LINE      CODE     ---       #323
      00FF4628H   LINE      CODE     ---       #324
      00FF4628H   LINE      CODE     ---       #326
      00FF4641H   LINE      CODE     ---       #327
      00FF4657H   LINE      CODE     ---       #329
      00FF4666H   LINE      CODE     ---       #330
      00FF467BH   LINE      CODE     ---       #331
      00FF468BH   LINE      CODE     ---       #332
      00FF469DH   LINE      CODE     ---       #334
      00FF46A0H   LINE      CODE     ---       #336
      00FF46A0H   LINE      CODE     ---       #337
      00FF46A0H   LINE      CODE     ---       #338
      00FF46A0H   LINE      CODE     ---       #340
      00FF46B9H   LINE      CODE     ---       #341
      00FF46CFH   LINE      CODE     ---       #343
      00FF46DEH   LINE      CODE     ---       #344
      00FF46F3H   LINE      CODE     ---       #345
      00FF4703H   LINE      CODE     ---       #346
      00FF4715H   LINE      CODE     ---       #347
      00FF4718H   LINE      CODE     ---       #350
      00FF4718H   LINE      CODE     ---       #351
      00FF4718H   LINE      CODE     ---       #352
      00FF4731H   LINE      CODE     ---       #353
      00FF4733H   LINE      CODE     ---       #355
      00FF4741H   LINE      CODE     ---       #356
      00FF474BH   LINE      CODE     ---       #357
      00FF4759H   LINE      CODE     ---       #358
      00FF4763H   LINE      CODE     ---       #359
      00FF476FH   LINE      CODE     ---       #360
      00FF4772H   LINE      CODE     ---       #362
      00FF4772H   LINE      CODE     ---       #363
      00FF4772H   LINE      CODE     ---       #365
      00FF478BH   LINE      CODE     ---       #367
L251 LINKER/LOCATER V4.66.93.0                                                        07/31/2023  12:50:11  PAGE 86


      00FF479DH   LINE      CODE     ---       #369
      00FF47A8H   LINE      CODE     ---       #370
      00FF47BBH   LINE      CODE     ---       #371
      00FF47C7H   LINE      CODE     ---       #372
      00FF47D5H   LINE      CODE     ---       #374
      00FF47D7H   LINE      CODE     ---       #377
      00FF47D7H   LINE      CODE     ---       #379
      00FF47E0H   LINE      CODE     ---       #380
      00FF47EAH   LINE      CODE     ---       #381
      00FF47F8H   LINE      CODE     ---       #382
      00FF47FAH   LINE      CODE     ---       #384
      00FF47FAH   LINE      CODE     ---       #385
      00FF47FAH   LINE      CODE     ---       #386
      00FF47FAH   LINE      CODE     ---       #389
      00FF4808H   LINE      CODE     ---       #390
      00FF4812H   LINE      CODE     ---       #391
      00FF4820H   LINE      CODE     ---       #392
      00FF4820H   LINE      CODE     ---       #393
      00FF482AH   LINE      CODE     ---       #394
      00FF4839H   LINE      CODE     ---       #397
      00FF483DH   LINE      CODE     ---       #398
      ---         BLOCKEND  ---      ---       LVL=0

      ---         MODULE    ---      ---       SEEKFREE_VIRSCO
      000009CFH   PUBLIC    EDATA    ---       virtual_scope_data
      00000805H   PUBLIC    EDATA    BYTE      ?data_conversion?BYTE
      000000D0H   SFRSYM    DATA     BYTE      PSW
      0000009DH   SFRSYM    DATA     BYTE      IRCBAND
      00000097H   SFRSYM    DATA     BYTE      AUXR2
      000000EFH   SFRSYM    DATA     BYTE      AUXINTIF
      000000FDH   SFRSYM    DATA     BYTE      S4CON
      000000ACH   SFRSYM    DATA     BYTE      S3CON
      0000009AH   SFRSYM    DATA     BYTE      S2CON
      000000B7H   SFRSYM    DATA     BYTE      IPH
      000000CDH   SFRSYM    DATA     BYTE      SPSTAT
      000000DDH   SFRSYM    DATA     BYTE      T4T3M
      000000C1H   SFRSYM    DATA     BYTE      WDT_CONTR
      000000DFH   SFRSYM    DATA     BYTE      IP3
      000000F4H   SFRSYM    DATA     BYTE      USBCON
      000000B5H   SFRSYM    DATA     BYTE      IP2
      000000FFH   SFRSYM    DATA     BYTE      RSTCFG
      000000F9H   SFRSYM    DATA     BYTE      LINICR
      0000008EH   SFRSYM    DATA     BYTE      AUXR
      000000AFH   SFRSYM    DATA     BYTE      IE2
      00000088H   SFRSYM    DATA     BYTE      TCON
      00000098H   SFRSYM    DATA     BYTE      SCON
      000000F1H   SFRSYM    DATA     BYTE      CANICR
      00000087H   SFRSYM    DATA     BYTE      PCON
      000000BCH   SFRSYM    DATA     BYTE      ADC_CONTR
      000000E7H   SFRSYM    DATA     BYTE      CMPCR2
      000000E6H   SFRSYM    DATA     BYTE      CMPCR1
      000000B8H   SFRSYM    DATA     BYTE      IP
      0000008FH   SFRSYM    DATA     BYTE      INTCLKO
      000000EEH   SFRSYM    DATA     BYTE      IP3H
      000000B6H   SFRSYM    DATA     BYTE      IP2H
      000000A8H   SFRSYM    DATA     BYTE      IE
      000000BBH   SFRSYM    DATA     BYTE      P_SW3
      000000BAH   SFRSYM    DATA     BYTE      P_SW2
      000000A2H   SFRSYM    DATA     BYTE      P_SW1
      000000CEH   SFRSYM    DATA     BYTE      SPCTL
      000000F8H   SFRSYM    DATA     BYTE      P7
      000000E8H   SFRSYM    DATA     BYTE      P6
      000000C8H   SFRSYM    DATA     BYTE      P5
      000000C0H   SFRSYM    DATA     BYTE      P4
      000000B0H   SFRSYM    DATA     BYTE      P3
L251 LINKER/LOCATER V4.66.93.0                                                        07/31/2023  12:50:11  PAGE 87


      000000A0H   SFRSYM    DATA     BYTE      P2
      00000090H   SFRSYM    DATA     BYTE      P1
      00000080H   SFRSYM    DATA     BYTE      P0
      00000A9FH   SYMBOL    EDATA    ---       Buf
      00000AA3H   SYMBOL    EDATA    BYTE      CRC_CNT
      00000AA4H   SYMBOL    EDATA    WORD      CRC_Temp
      00000AA6H   SYMBOL    EDATA    BYTE      i
      00000AA7H   SYMBOL    EDATA    BYTE      j
      00000805H   SYMBOL    EDATA    INT       data1
      00000807H   SYMBOL    EDATA    INT       data2
      00000809H   SYMBOL    EDATA    INT       data3
      0000080BH   SYMBOL    EDATA    INT       data4
      0000080DH   SYMBOL    EDATA    ---       dat
      00000811H   SYMBOL    EDATA    WORD      CRC16

      ---         MODULE    ---      ---       SEEKFREE_WIRELESS
      00FF79E9H   PUBLIC    CODE     ---       wireless_uart_callback
      000000D0H   SFRSYM    DATA     BYTE      PSW
      0000009DH   SFRSYM    DATA     BYTE      IRCBAND
      00000097H   SFRSYM    DATA     BYTE      AUXR2
      000000EFH   SFRSYM    DATA     BYTE      AUXINTIF
      000000FDH   SFRSYM    DATA     BYTE      S4CON
      000000ACH   SFRSYM    DATA     BYTE      S3CON
      0000009AH   SFRSYM    DATA     BYTE      S2CON
      000000FEH   SFRSYM    DATA     BYTE      S4BUF
      000000B7H   SFRSYM    DATA     BYTE      IPH
      000000CDH   SFRSYM    DATA     BYTE      SPSTAT
      000000DDH   SFRSYM    DATA     BYTE      T4T3M
      000000C1H   SFRSYM    DATA     BYTE      WDT_CONTR
      000000DFH   SFRSYM    DATA     BYTE      IP3
      000000F4H   SFRSYM    DATA     BYTE      USBCON
      000000B5H   SFRSYM    DATA     BYTE      IP2
      000000FFH   SFRSYM    DATA     BYTE      RSTCFG
      000000F9H   SFRSYM    DATA     BYTE      LINICR
      0000008EH   SFRSYM    DATA     BYTE      AUXR
      000000AFH   SFRSYM    DATA     BYTE      IE2
      00000080H.7 SFRSYM    DATA     BIT       P07
      00000088H   SFRSYM    DATA     BYTE      TCON
      00000098H   SFRSYM    DATA     BYTE      SCON
      000000F1H   SFRSYM    DATA     BYTE      CANICR
      00000087H   SFRSYM    DATA     BYTE      PCON
      000000BCH   SFRSYM    DATA     BYTE      ADC_CONTR
      000000E7H   SFRSYM    DATA     BYTE      CMPCR2
      000000E6H   SFRSYM    DATA     BYTE      CMPCR1
      000000B8H   SFRSYM    DATA     BYTE      IP
      0000008FH   SFRSYM    DATA     BYTE      INTCLKO
      000000EEH   SFRSYM    DATA     BYTE      IP3H
      000000B6H   SFRSYM    DATA     BYTE      IP2H
      000000A8H   SFRSYM    DATA     BYTE      IE
      000000BBH   SFRSYM    DATA     BYTE      P_SW3
      000000BAH   SFRSYM    DATA     BYTE      P_SW2
      000000A2H   SFRSYM    DATA     BYTE      P_SW1
      000000CEH   SFRSYM    DATA     BYTE      SPCTL
      000000F8H   SFRSYM    DATA     BYTE      P7
      000000E8H   SFRSYM    DATA     BYTE      P6
      000000C8H   SFRSYM    DATA     BYTE      P5
      000000C0H   SFRSYM    DATA     BYTE      P4
      000000B0H   SFRSYM    DATA     BYTE      P3
      000000A0H   SFRSYM    DATA     BYTE      P2
      00000090H   SFRSYM    DATA     BYTE      P1
      00000080H   SFRSYM    DATA     BYTE      P0
      000003D0H   SYMBOL    EDATA    BYTE      wireless_uart_data
      000003D1H   SYMBOL    EDATA    ---       wireless_uart_fifo
      000003E5H   SYMBOL    EDATA    ---       wireless_uart_buffer

L251 LINKER/LOCATER V4.66.93.0                                                        07/31/2023  12:50:11  PAGE 88


      00FF79E9H   BLOCK     CODE     ---       LVL=0
      00FF79E9H   LINE      CODE     ---       #48
      00FF79E9H   LINE      CODE     ---       #51
      00FF79EFH   LINE      CODE     ---       #52
      00FF7A02H   LINE      CODE     ---       #53
      ---         BLOCKEND  ---      ---       LVL=0
      00000BD9H   SYMBOL    EDATA    ---       buff
      00000BDDH   SYMBOL    EDATA    WORD      len
      000008FBH   SYMBOL    EDATA    ---       buff
      000008FFH   SYMBOL    EDATA    DWORD     len
      00000903H   SYMBOL    EDATA    DWORD     data_len

      ---         MODULE    ---      ---       SEEKFREE_WIRELESS_CH573
      00FF7A03H   PUBLIC    CODE     ---       wireless_ch573_callback
      000000D0H   SFRSYM    DATA     BYTE      PSW
      0000009DH   SFRSYM    DATA     BYTE      IRCBAND
      00000097H   SFRSYM    DATA     BYTE      AUXR2
      000000EFH   SFRSYM    DATA     BYTE      AUXINTIF
      000000FDH   SFRSYM    DATA     BYTE      S4CON
      000000ACH   SFRSYM    DATA     BYTE      S3CON
      0000009AH   SFRSYM    DATA     BYTE      S2CON
      000000FEH   SFRSYM    DATA     BYTE      S4BUF
      000000B7H   SFRSYM    DATA     BYTE      IPH
      000000CDH   SFRSYM    DATA     BYTE      SPSTAT
      000000DDH   SFRSYM    DATA     BYTE      T4T3M
      000000C1H   SFRSYM    DATA     BYTE      WDT_CONTR
      000000DFH   SFRSYM    DATA     BYTE      IP3
      000000F4H   SFRSYM    DATA     BYTE      USBCON
      000000B5H   SFRSYM    DATA     BYTE      IP2
      000000FFH   SFRSYM    DATA     BYTE      RSTCFG
      000000F9H   SFRSYM    DATA     BYTE      LINICR
      0000008EH   SFRSYM    DATA     BYTE      AUXR
      000000AFH   SFRSYM    DATA     BYTE      IE2
      00000080H.7 SFRSYM    DATA     BIT       P07
      00000088H   SFRSYM    DATA     BYTE      TCON
      00000098H   SFRSYM    DATA     BYTE      SCON
      000000F1H   SFRSYM    DATA     BYTE      CANICR
      00000087H   SFRSYM    DATA     BYTE      PCON
      000000BCH   SFRSYM    DATA     BYTE      ADC_CONTR
      000000E7H   SFRSYM    DATA     BYTE      CMPCR2
      000000E6H   SFRSYM    DATA     BYTE      CMPCR1
      000000B8H   SFRSYM    DATA     BYTE      IP
      0000008FH   SFRSYM    DATA     BYTE      INTCLKO
      000000EEH   SFRSYM    DATA     BYTE      IP3H
      000000B6H   SFRSYM    DATA     BYTE      IP2H
      000000A8H   SFRSYM    DATA     BYTE      IE
      000000BBH   SFRSYM    DATA     BYTE      P_SW3
      000000BAH   SFRSYM    DATA     BYTE      P_SW2
      000000A2H   SFRSYM    DATA     BYTE      P_SW1
      000000CEH   SFRSYM    DATA     BYTE      SPCTL
      000000F8H   SFRSYM    DATA     BYTE      P7
      000000E8H   SFRSYM    DATA     BYTE      P6
      000000C8H   SFRSYM    DATA     BYTE      P5
      000000C0H   SFRSYM    DATA     BYTE      P4
      000000B0H   SFRSYM    DATA     BYTE      P3
      000000A0H   SFRSYM    DATA     BYTE      P2
      00000090H   SFRSYM    DATA     BYTE      P1
      00000080H   SFRSYM    DATA     BYTE      P0
      00000425H   SYMBOL    EDATA    ---       wireless_ch573_buffer
      00000465H   SYMBOL    EDATA    BYTE      wireless_ch573_data
      00000466H   SYMBOL    EDATA    ---       wireless_ch573_fifo

      00FF7A03H   BLOCK     CODE     ---       LVL=0
      00FF7A03H   LINE      CODE     ---       #47
      00FF7A03H   LINE      CODE     ---       #50
L251 LINKER/LOCATER V4.66.93.0                                                        07/31/2023  12:50:11  PAGE 89


      00FF7A09H   LINE      CODE     ---       #51
      00FF7A1CH   LINE      CODE     ---       #52
      ---         BLOCKEND  ---      ---       LVL=0
      00000BDFH   SYMBOL    EDATA    ---       buff
      00000BE3H   SYMBOL    EDATA    WORD      len
      00000907H   SYMBOL    EDATA    ---       buff
      0000090BH   SYMBOL    EDATA    DWORD     len
      0000090FH   SYMBOL    EDATA    DWORD     data_len

      ---         MODULE    ---      ---       isr
      00FF7415H   PUBLIC    CODE     ---       UART1_Isr
      00FF787DH   PUBLIC    CODE     ---       UART2_Isr
      00FF789BH   PUBLIC    CODE     ---       UART3_Isr
      00FF67E1H   PUBLIC    CODE     ---       UART4_Isr
      00FF7B29H   PUBLIC    CODE     ---       INT0_Isr
      00FF000AH   PUBLIC    CODE     ---       INT1_Isr
      00FF7B31H   PUBLIC    CODE     ---       INT2_Isr
      00FF7B39H   PUBLIC    CODE     ---       INT3_Isr
      00FF7B41H   PUBLIC    CODE     ---       INT4_Isr
      00FF000EH   PUBLIC    CODE     ---       TM0_Isr
      00FF000FH   PUBLIC    CODE     ---       TM1_Isr
      00FF7B49H   PUBLIC    CODE     ---       TM2_Isr
      00FF7B51H   PUBLIC    CODE     ---       TM3_Isr
      00FF751DH   PUBLIC    CODE     ---       TM4_Isr
      000000D0H   SFRSYM    DATA     BYTE      PSW
      0000009DH   SFRSYM    DATA     BYTE      IRCBAND
      00000097H   SFRSYM    DATA     BYTE      AUXR2
      000000EFH   SFRSYM    DATA     BYTE      AUXINTIF
      000000FDH   SFRSYM    DATA     BYTE      S4CON
      000000ACH   SFRSYM    DATA     BYTE      S3CON
      0000009AH   SFRSYM    DATA     BYTE      S2CON
      000000B7H   SFRSYM    DATA     BYTE      IPH
      000000CDH   SFRSYM    DATA     BYTE      SPSTAT
      000000DDH   SFRSYM    DATA     BYTE      T4T3M
      000000C1H   SFRSYM    DATA     BYTE      WDT_CONTR
      000000DFH   SFRSYM    DATA     BYTE      IP3
      000000F4H   SFRSYM    DATA     BYTE      USBCON
      000000B5H   SFRSYM    DATA     BYTE      IP2
      000000FFH   SFRSYM    DATA     BYTE      RSTCFG
      000000C7H   SFRSYM    DATA     BYTE      IAP_CONTR
      000000F9H   SFRSYM    DATA     BYTE      LINICR
      0000008EH   SFRSYM    DATA     BYTE      AUXR
      000000AFH   SFRSYM    DATA     BYTE      IE2
      000000C8H.2 SFRSYM    DATA     BIT       P52
      00000088H   SFRSYM    DATA     BYTE      TCON
      00000098H   SFRSYM    DATA     BYTE      SCON
      000000F1H   SFRSYM    DATA     BYTE      CANICR
      00000087H   SFRSYM    DATA     BYTE      PCON
      00000099H   SFRSYM    DATA     BYTE      SBUF
      000000BCH   SFRSYM    DATA     BYTE      ADC_CONTR
      000000E7H   SFRSYM    DATA     BYTE      CMPCR2
      000000E6H   SFRSYM    DATA     BYTE      CMPCR1
      000000B8H   SFRSYM    DATA     BYTE      IP
      0000008FH   SFRSYM    DATA     BYTE      INTCLKO
      000000EEH   SFRSYM    DATA     BYTE      IP3H
      000000B6H   SFRSYM    DATA     BYTE      IP2H
      000000A8H   SFRSYM    DATA     BYTE      IE
      000000BBH   SFRSYM    DATA     BYTE      P_SW3
      000000BAH   SFRSYM    DATA     BYTE      P_SW2
      000000A2H   SFRSYM    DATA     BYTE      P_SW1
      000000CEH   SFRSYM    DATA     BYTE      SPCTL
      000000F8H   SFRSYM    DATA     BYTE      P7
      000000E8H   SFRSYM    DATA     BYTE      P6
      000000C8H   SFRSYM    DATA     BYTE      P5
      000000C0H   SFRSYM    DATA     BYTE      P4
L251 LINKER/LOCATER V4.66.93.0                                                        07/31/2023  12:50:11  PAGE 90


      000000B0H   SFRSYM    DATA     BYTE      P3
      000000A0H   SFRSYM    DATA     BYTE      P2
      00000090H   SFRSYM    DATA     BYTE      P1
      00000080H   SFRSYM    DATA     BYTE      P0

      00FF7415H   BLOCK     CODE     ---       LVL=0
      00FF7419H   BLOCK     CODE     NEAR LAB  LVL=1
      00000CFAH   SYMBOL    EDATA    BYTE      res
      00000CFBH   SYMBOL    EDATA    BYTE      dwon_count
      ---         BLOCKEND  ---      ---       LVL=1
      00FF7415H   LINE      CODE     ---       #24
      00FF7419H   LINE      CODE     ---       #25
      00FF7419H   LINE      CODE     ---       #28
      00FF741EH   LINE      CODE     ---       #30
      00FF7421H   LINE      CODE     ---       #31
      00FF7426H   LINE      CODE     ---       #32
      00FF7426H   LINE      CODE     ---       #33
      00FF742BH   LINE      CODE     ---       #35
      00FF742EH   LINE      CODE     ---       #36
      00FF7434H   LINE      CODE     ---       #38
      00FF7439H   LINE      CODE     ---       #40
      00FF744BH   LINE      CODE     ---       #41
      00FF744FH   LINE      CODE     ---       #42
      00FF7451H   LINE      CODE     ---       #45
      00FF7456H   LINE      CODE     ---       #46
      00FF7456H   LINE      CODE     ---       #47
      ---         BLOCKEND  ---      ---       LVL=0

      00FF787DH   BLOCK     CODE     ---       LVL=0
      00FF787DH   LINE      CODE     ---       #51
      00FF7881H   LINE      CODE     ---       #53
      00FF7886H   LINE      CODE     ---       #55
      00FF7889H   LINE      CODE     ---       #56
      00FF788EH   LINE      CODE     ---       #57
      00FF788EH   LINE      CODE     ---       #58
      00FF7893H   LINE      CODE     ---       #60
      00FF7896H   LINE      CODE     ---       #63
      ---         BLOCKEND  ---      ---       LVL=0

      00FF789BH   BLOCK     CODE     ---       LVL=0
      00FF789BH   LINE      CODE     ---       #68
      00FF789FH   LINE      CODE     ---       #70
      00FF78A4H   LINE      CODE     ---       #72
      00FF78A7H   LINE      CODE     ---       #73
      00FF78ACH   LINE      CODE     ---       #74
      00FF78ACH   LINE      CODE     ---       #75
      00FF78B1H   LINE      CODE     ---       #77
      00FF78B4H   LINE      CODE     ---       #80
      ---         BLOCKEND  ---      ---       LVL=0

      00FF67E1H   BLOCK     CODE     ---       LVL=0
      00FF67E1H   LINE      CODE     ---       #85
      00FF67F7H   LINE      CODE     ---       #87
      00FF67FCH   LINE      CODE     ---       #89
      00FF67FFH   LINE      CODE     ---       #90
      00FF6804H   LINE      CODE     ---       #91
      00FF6804H   LINE      CODE     ---       #92
      00FF6809H   LINE      CODE     ---       #94
      00FF680CH   LINE      CODE     ---       #97
      00FF6818H   LINE      CODE     ---       #99
      00FF681BH   LINE      CODE     ---       #100
      00FF681DH   LINE      CODE     ---       #101
      00FF6829H   LINE      CODE     ---       #103
      00FF682CH   LINE      CODE     ---       #104
      00FF682EH   LINE      CODE     ---       #105
L251 LINKER/LOCATER V4.66.93.0                                                        07/31/2023  12:50:11  PAGE 91


      00FF683AH   LINE      CODE     ---       #107
      00FF683DH   LINE      CODE     ---       #108
      00FF683DH   LINE      CODE     ---       #110
      ---         BLOCKEND  ---      ---       LVL=0

      00FF7B29H   BLOCK     CODE     ---       LVL=0
      00FF7B29H   LINE      CODE     ---       #113
      00FF7B2BH   LINE      CODE     ---       #115
      00FF7B2EH   LINE      CODE     ---       #116
      ---         BLOCKEND  ---      ---       LVL=0

      00FF000AH   BLOCK     CODE     ---       LVL=0
      00FF000AH   LINE      CODE     ---       #117
      00FF000AH   LINE      CODE     ---       #120
      ---         BLOCKEND  ---      ---       LVL=0

      00FF7B31H   BLOCK     CODE     ---       LVL=0
      00FF7B31H   LINE      CODE     ---       #121
      00FF7B33H   LINE      CODE     ---       #123
      00FF7B36H   LINE      CODE     ---       #124
      ---         BLOCKEND  ---      ---       LVL=0

      00FF7B39H   BLOCK     CODE     ---       LVL=0
      00FF7B39H   LINE      CODE     ---       #125
      00FF7B3BH   LINE      CODE     ---       #127
      00FF7B3EH   LINE      CODE     ---       #128
      ---         BLOCKEND  ---      ---       LVL=0

      00FF7B41H   BLOCK     CODE     ---       LVL=0
      00FF7B41H   LINE      CODE     ---       #130
      00FF7B43H   LINE      CODE     ---       #132
      00FF7B46H   LINE      CODE     ---       #133
      ---         BLOCKEND  ---      ---       LVL=0

      00FF000EH   BLOCK     CODE     ---       LVL=0
      00FF000EH   LINE      CODE     ---       #135
      00FF000EH   LINE      CODE     ---       #138
      ---         BLOCKEND  ---      ---       LVL=0

      00FF000FH   BLOCK     CODE     ---       LVL=0
      00FF000FH   LINE      CODE     ---       #139
      00FF000FH   LINE      CODE     ---       #142
      ---         BLOCKEND  ---      ---       LVL=0

      00FF7B49H   BLOCK     CODE     ---       LVL=0
      00FF7B49H   LINE      CODE     ---       #143
      00FF7B4BH   LINE      CODE     ---       #145
      00FF7B4EH   LINE      CODE     ---       #147
      ---         BLOCKEND  ---      ---       LVL=0

      00FF7B51H   BLOCK     CODE     ---       LVL=0
      00FF7B51H   LINE      CODE     ---       #148
      00FF7B53H   LINE      CODE     ---       #150
      00FF7B56H   LINE      CODE     ---       #152
      ---         BLOCKEND  ---      ---       LVL=0

      00FF751DH   BLOCK     CODE     ---       LVL=0
      00FF751DH   LINE      CODE     ---       #154
      00FF7533H   LINE      CODE     ---       #156
      00FF7536H   LINE      CODE     ---       #157
      00FF753DH   LINE      CODE     ---       #158
      00FF7540H   LINE      CODE     ---       #162
      ---         BLOCKEND  ---      ---       LVL=0

      ---         MODULE    ---      ---       main
L251 LINKER/LOCATER V4.66.93.0                                                        07/31/2023  12:50:11  PAGE 92


      00FF7127H   PUBLIC    CODE     ---       main
      000000D0H   SFRSYM    DATA     BYTE      PSW
      0000009DH   SFRSYM    DATA     BYTE      IRCBAND
      00000097H   SFRSYM    DATA     BYTE      AUXR2
      000000EFH   SFRSYM    DATA     BYTE      AUXINTIF
      000000FDH   SFRSYM    DATA     BYTE      S4CON
      000000ACH   SFRSYM    DATA     BYTE      S3CON
      0000009AH   SFRSYM    DATA     BYTE      S2CON
      000000B7H   SFRSYM    DATA     BYTE      IPH
      000000CDH   SFRSYM    DATA     BYTE      SPSTAT
      000000DDH   SFRSYM    DATA     BYTE      T4T3M
      000000C1H   SFRSYM    DATA     BYTE      WDT_CONTR
      000000DFH   SFRSYM    DATA     BYTE      IP3
      000000F4H   SFRSYM    DATA     BYTE      USBCON
      000000B5H   SFRSYM    DATA     BYTE      IP2
      000000FFH   SFRSYM    DATA     BYTE      RSTCFG
      000000F9H   SFRSYM    DATA     BYTE      LINICR
      0000008EH   SFRSYM    DATA     BYTE      AUXR
      000000AFH   SFRSYM    DATA     BYTE      IE2
      000000E8H.7 SFRSYM    DATA     BIT       P67
      00000088H   SFRSYM    DATA     BYTE      TCON
      00000098H   SFRSYM    DATA     BYTE      SCON
      000000F1H   SFRSYM    DATA     BYTE      CANICR
      00000087H   SFRSYM    DATA     BYTE      PCON
      000000BCH   SFRSYM    DATA     BYTE      ADC_CONTR
      000000E7H   SFRSYM    DATA     BYTE      CMPCR2
      000000E6H   SFRSYM    DATA     BYTE      CMPCR1
      000000B8H   SFRSYM    DATA     BYTE      IP
      0000008FH   SFRSYM    DATA     BYTE      INTCLKO
      000000EEH   SFRSYM    DATA     BYTE      IP3H
      000000B6H   SFRSYM    DATA     BYTE      IP2H
      000000A8H   SFRSYM    DATA     BYTE      IE
      000000BBH   SFRSYM    DATA     BYTE      P_SW3
      000000BAH   SFRSYM    DATA     BYTE      P_SW2
      000000A2H   SFRSYM    DATA     BYTE      P_SW1
      000000CEH   SFRSYM    DATA     BYTE      SPCTL
      000000F8H   SFRSYM    DATA     BYTE      P7
      000000E8H   SFRSYM    DATA     BYTE      P6
      000000C8H   SFRSYM    DATA     BYTE      P5
      000000C0H   SFRSYM    DATA     BYTE      P4
      000000B0H   SFRSYM    DATA     BYTE      P3
      000000A0H   SFRSYM    DATA     BYTE      P2
      00000090H   SFRSYM    DATA     BYTE      P1
      00000080H   SFRSYM    DATA     BYTE      P0

      00FF7127H   BLOCK     CODE     ---       LVL=0
      00FF7127H   LINE      CODE     ---       #31
      00FF7127H   LINE      CODE     ---       #33
      00FF712AH   LINE      CODE     ---       #37
      00FF7135H   LINE      CODE     ---       #39
      00FF7138H   LINE      CODE     ---       #40
      00FF713BH   LINE      CODE     ---       #42
      00FF713EH   LINE      CODE     ---       #43
      00FF7145H   LINE      CODE     ---       #44
      00FF7148H   LINE      CODE     ---       #46
      00FF714BH   LINE      CODE     ---       #48
      00FF7151H   LINE      CODE     ---       #49
      00FF7161H   LINE      CODE     ---       #52
      00FF716CH   LINE      CODE     ---       #54
      00FF716CH   LINE      CODE     ---       #57
      00FF716FH   LINE      CODE     ---       #58
      00FF7172H   LINE      CODE     ---       #61
      00FF7174H   LINE      CODE     ---       #62
      ---         BLOCKEND  ---      ---       LVL=0

L251 LINKER/LOCATER V4.66.93.0                                                        07/31/2023  12:50:11  PAGE 93


      ---         MODULE    ---      ---       key
      00FF554CH   PUBLIC    CODE     ---       Keystroke_Scan
      00000813H   PUBLIC    EDATA    BYTE      key1_status
      00000814H   PUBLIC    EDATA    BYTE      key2_status
      00000815H   PUBLIC    EDATA    BYTE      key3_status
      00000816H   PUBLIC    EDATA    BYTE      key4_status
      00000817H   PUBLIC    EDATA    BYTE      key1_last_status
      00000818H   PUBLIC    EDATA    BYTE      key2_last_status
      00000819H   PUBLIC    EDATA    BYTE      key3_last_status
      0000081AH   PUBLIC    EDATA    BYTE      key4_last_status
      0000081BH   PUBLIC    EDATA    BYTE      sw1_status
      0000081CH   PUBLIC    EDATA    BYTE      sw2_status
      0000081DH   PUBLIC    EDATA    BYTE      key1_flag
      0000081EH   PUBLIC    EDATA    BYTE      key2_flag
      0000081FH   PUBLIC    EDATA    BYTE      key3_flag
      00000820H   PUBLIC    EDATA    BYTE      key4_flag
      000000D0H   SFRSYM    DATA     BYTE      PSW
      0000009DH   SFRSYM    DATA     BYTE      IRCBAND
      00000097H   SFRSYM    DATA     BYTE      AUXR2
      000000EFH   SFRSYM    DATA     BYTE      AUXINTIF
      000000FDH   SFRSYM    DATA     BYTE      S4CON
      000000ACH   SFRSYM    DATA     BYTE      S3CON
      0000009AH   SFRSYM    DATA     BYTE      S2CON
      000000B7H   SFRSYM    DATA     BYTE      IPH
      000000CDH   SFRSYM    DATA     BYTE      SPSTAT
      000000DDH   SFRSYM    DATA     BYTE      T4T3M
      000000C1H   SFRSYM    DATA     BYTE      WDT_CONTR
      000000DFH   SFRSYM    DATA     BYTE      IP3
      000000F4H   SFRSYM    DATA     BYTE      USBCON
      000000B5H   SFRSYM    DATA     BYTE      IP2
      000000FFH   SFRSYM    DATA     BYTE      RSTCFG
      000000F9H   SFRSYM    DATA     BYTE      LINICR
      0000008EH   SFRSYM    DATA     BYTE      AUXR
      000000AFH   SFRSYM    DATA     BYTE      IE2
      000000E8H.7 SFRSYM    DATA     BIT       P67
      000000F8H.6 SFRSYM    DATA     BIT       P76
      000000F8H.5 SFRSYM    DATA     BIT       P75
      000000F8H.3 SFRSYM    DATA     BIT       P73
      000000F8H.2 SFRSYM    DATA     BIT       P72
      000000F8H.1 SFRSYM    DATA     BIT       P71
      000000F8H.0 SFRSYM    DATA     BIT       P70
      00000088H   SFRSYM    DATA     BYTE      TCON
      00000098H   SFRSYM    DATA     BYTE      SCON
      000000F1H   SFRSYM    DATA     BYTE      CANICR
      00000087H   SFRSYM    DATA     BYTE      PCON
      000000BCH   SFRSYM    DATA     BYTE      ADC_CONTR
      000000E7H   SFRSYM    DATA     BYTE      CMPCR2
      000000E6H   SFRSYM    DATA     BYTE      CMPCR1
      000000B8H   SFRSYM    DATA     BYTE      IP
      0000008FH   SFRSYM    DATA     BYTE      INTCLKO
      000000EEH   SFRSYM    DATA     BYTE      IP3H
      000000B6H   SFRSYM    DATA     BYTE      IP2H
      000000A8H   SFRSYM    DATA     BYTE      IE
      000000BBH   SFRSYM    DATA     BYTE      P_SW3
      000000BAH   SFRSYM    DATA     BYTE      P_SW2
      000000A2H   SFRSYM    DATA     BYTE      P_SW1
      000000CEH   SFRSYM    DATA     BYTE      SPCTL
      000000F8H   SFRSYM    DATA     BYTE      P7
      000000E8H   SFRSYM    DATA     BYTE      P6
      000000C8H   SFRSYM    DATA     BYTE      P5
      000000C0H   SFRSYM    DATA     BYTE      P4
      000000B0H   SFRSYM    DATA     BYTE      P3
      000000A0H   SFRSYM    DATA     BYTE      P2
      00000090H   SFRSYM    DATA     BYTE      P1
      00000080H   SFRSYM    DATA     BYTE      P0
L251 LINKER/LOCATER V4.66.93.0                                                        07/31/2023  12:50:11  PAGE 94



      00FF554CH   BLOCK     CODE     ---       LVL=0
      00FF554CH   LINE      CODE     ---       #40
      00FF554CH   LINE      CODE     ---       #44
      00FF5554H   LINE      CODE     ---       #45
      00FF555CH   LINE      CODE     ---       #49
      00FF5564H   LINE      CODE     ---       #50
      00FF556CH   LINE      CODE     ---       #51
      00FF5574H   LINE      CODE     ---       #52
      00FF557CH   LINE      CODE     ---       #54
      00FF5584H   LINE      CODE     ---       #55
      00FF558CH   LINE      CODE     ---       #56
      00FF5594H   LINE      CODE     ---       #57
      00FF559CH   LINE      CODE     ---       #61
      00FF55B4H   LINE      CODE     ---       #62
      00FF55CCH   LINE      CODE     ---       #63
      00FF55E4H   LINE      CODE     ---       #64
      00FF55FCH   LINE      CODE     ---       #67
      00FF5601H   LINE      CODE     ---       #69
      00FF560AH   LINE      CODE     ---       #71
      00FF560FH   LINE      CODE     ---       #72
      00FF5615H   LINE      CODE     ---       #73
      00FF5618H   LINE      CODE     ---       #74
      00FF561FH   LINE      CODE     ---       #75
      00FF5622H   LINE      CODE     ---       #76
      00FF5622H   LINE      CODE     ---       #78
      00FF562BH   LINE      CODE     ---       #80
      00FF5630H   LINE      CODE     ---       #81
      00FF5636H   LINE      CODE     ---       #82
      00FF5639H   LINE      CODE     ---       #83
      00FF5640H   LINE      CODE     ---       #84
      00FF5643H   LINE      CODE     ---       #85
      00FF5643H   LINE      CODE     ---       #87
      00FF564CH   LINE      CODE     ---       #89
      00FF5651H   LINE      CODE     ---       #90
      00FF5657H   LINE      CODE     ---       #91
      00FF565AH   LINE      CODE     ---       #92
      00FF5661H   LINE      CODE     ---       #93
      00FF5664H   LINE      CODE     ---       #94
      00FF5664H   LINE      CODE     ---       #96
      00FF566DH   LINE      CODE     ---       #98
      00FF5672H   LINE      CODE     ---       #99
      00FF5678H   LINE      CODE     ---       #100
      00FF567BH   LINE      CODE     ---       #101
      00FF5682H   LINE      CODE     ---       #102
      00FF5685H   LINE      CODE     ---       #103
      ---         BLOCKEND  ---      ---       LVL=0

      ---         MODULE    ---      ---       menu
      00FF5FE1H   PUBLIC    CODE     ---       Cursor
      00FF6F8AH   PUBLIC    CODE     ---       Keystroke_Menu_ONE
      00FF4CF6H   PUBLIC    CODE     ---       Keystroke_Menu_ONE_One
      00FF78F3H   PUBLIC    CODE     ---       Keystroke_Menu_TWO_Five
      00FF53E7H   PUBLIC    CODE     ---       Menu_ONE_Display
      00FF790FH   PUBLIC    CODE     ---       Keystroke_Menu_TWO_Four
      00FF73CEH   PUBLIC    CODE     ---       Keystroke_Menu_Three
      00FF7A1DH   PUBLIC    CODE     ---       Keystroke_Menu_TWO
      00FF792BH   PUBLIC    CODE     ---       Keystroke_Menu_TWO_One
      00FF0010H   PUBLIC    CODE     ---       Keystroke_Menu_ONE_Two
      00FF57BEH   PUBLIC    CODE     ---       Menu_TWO_Display
      00FF7947H   PUBLIC    CODE     ---       Keystroke_Menu_TWO_Six
      00FF7963H   PUBLIC    CODE     ---       Keystroke_Menu_TWO_Two
      00FF61F3H   PUBLIC    CODE     ---       Keystroke_Menu
      00FF59EEH   PUBLIC    CODE     ---       Keystroke_Menu_HOME
      00FF6FDEH   PUBLIC    CODE     ---       have_sub_menu
L251 LINKER/LOCATER V4.66.93.0                                                        07/31/2023  12:50:11  PAGE 95


      00FF6C62H   PUBLIC    CODE     ---       Menu_Next_Back
      00FF5D96H   PUBLIC    CODE     ---       Keystroke_int
      00FF797FH   PUBLIC    CODE     ---       Keystroke_Menu_TWO_Three
      000006F0H   PUBLIC    EDATA    FLOAT     change_unit
      000006F4H   PUBLIC    EDATA    BYTE      KeystrokeLabel
      000006F5H   PUBLIC    EDATA    BYTE      MenuNextFlag
      000006F6H   PUBLIC    EDATA    BYTE      CursorRow
      000006F7H   PUBLIC    EDATA    INT       Display_Codename
      000006F9H   PUBLIC    EDATA    ---       menu_have_sub
      000000D0H   SFRSYM    DATA     BYTE      PSW
      0000009DH   SFRSYM    DATA     BYTE      IRCBAND
      00000097H   SFRSYM    DATA     BYTE      AUXR2
      000000EFH   SFRSYM    DATA     BYTE      AUXINTIF
      000000FDH   SFRSYM    DATA     BYTE      S4CON
      000000ACH   SFRSYM    DATA     BYTE      S3CON
      0000009AH   SFRSYM    DATA     BYTE      S2CON
      000000B7H   SFRSYM    DATA     BYTE      IPH
      000000CDH   SFRSYM    DATA     BYTE      SPSTAT
      000000DDH   SFRSYM    DATA     BYTE      T4T3M
      000000C1H   SFRSYM    DATA     BYTE      WDT_CONTR
      000000DFH   SFRSYM    DATA     BYTE      IP3
      000000F4H   SFRSYM    DATA     BYTE      USBCON
      000000B5H   SFRSYM    DATA     BYTE      IP2
      000000FFH   SFRSYM    DATA     BYTE      RSTCFG
      000000F9H   SFRSYM    DATA     BYTE      LINICR
      0000008EH   SFRSYM    DATA     BYTE      AUXR
      000000AFH   SFRSYM    DATA     BYTE      IE2
      000000E8H.7 SFRSYM    DATA     BIT       P67
      00000088H   SFRSYM    DATA     BYTE      TCON
      00000098H   SFRSYM    DATA     BYTE      SCON
      000000F1H   SFRSYM    DATA     BYTE      CANICR
      00000087H   SFRSYM    DATA     BYTE      PCON
      000000BCH   SFRSYM    DATA     BYTE      ADC_CONTR
      000000E7H   SFRSYM    DATA     BYTE      CMPCR2
      000000E6H   SFRSYM    DATA     BYTE      CMPCR1
      000000B8H   SFRSYM    DATA     BYTE      IP
      0000008FH   SFRSYM    DATA     BYTE      INTCLKO
      000000EEH   SFRSYM    DATA     BYTE      IP3H
      000000B6H   SFRSYM    DATA     BYTE      IP2H
      000000A8H   SFRSYM    DATA     BYTE      IE
      000000BBH   SFRSYM    DATA     BYTE      P_SW3
      000000BAH   SFRSYM    DATA     BYTE      P_SW2
      000000A2H   SFRSYM    DATA     BYTE      P_SW1
      000000CEH   SFRSYM    DATA     BYTE      SPCTL
      000000F8H   SFRSYM    DATA     BYTE      P7
      000000E8H   SFRSYM    DATA     BYTE      P6
      000000C8H   SFRSYM    DATA     BYTE      P5
      000000C0H   SFRSYM    DATA     BYTE      P4
      000000B0H   SFRSYM    DATA     BYTE      P3
      000000A0H   SFRSYM    DATA     BYTE      P2
      00000090H   SFRSYM    DATA     BYTE      P1
      00000080H   SFRSYM    DATA     BYTE      P0

      00FF5FE1H   BLOCK     CODE     ---       LVL=0
      00000CFCH   SYMBOL    EDATA    BYTE      i
      00FF5FE1H   LINE      CODE     ---       #48
      00FF5FE1H   LINE      CODE     ---       #49
      00FF5FE1H   LINE      CODE     ---       #51
      00FF5FE6H   LINE      CODE     ---       #53
      00FF5FE9H   LINE      CODE     ---       #55
      00FF5FFBH   LINE      CODE     ---       #57
      00FF5FFBH   LINE      CODE     ---       #58
      00FF6007H   LINE      CODE     ---       #59
      00FF6009H   LINE      CODE     ---       #60
      00FF6009H   LINE      CODE     ---       #61
L251 LINKER/LOCATER V4.66.93.0                                                        07/31/2023  12:50:11  PAGE 96


      00FF6016H   LINE      CODE     ---       #62
      00FF6018H   LINE      CODE     ---       #63
      00FF6018H   LINE      CODE     ---       #64
      00FF601EH   LINE      CODE     ---       #65
      00FF6020H   LINE      CODE     ---       #66
      00FF6020H   LINE      CODE     ---       #67
      00FF6026H   LINE      CODE     ---       #68
      00FF6026H   LINE      CODE     ---       #69
      00FF6026H   LINE      CODE     ---       #71
      00FF6030H   LINE      CODE     ---       #73
      00FF6036H   LINE      CODE     ---       #74
      00FF6038H   LINE      CODE     ---       #75
      00FF6042H   LINE      CODE     ---       #77
      00FF6048H   LINE      CODE     ---       #78
      00FF6048H   LINE      CODE     ---       #80
      00FF604FH   LINE      CODE     ---       #82
      00FF605BH   LINE      CODE     ---       #84
      00FF606EH   LINE      CODE     ---       #85
      00FF6070H   LINE      CODE     ---       #88
      00FF6083H   LINE      CODE     ---       #89
      00FF6083H   LINE      CODE     ---       #90
      00FF609AH   LINE      CODE     ---       #92
      ---         BLOCKEND  ---      ---       LVL=0

      00FF6C62H   BLOCK     CODE     ---       LVL=0
      00FF6C62H   LINE      CODE     ---       #95
      00FF6C62H   LINE      CODE     ---       #97
      00FF6C6FH   LINE      CODE     ---       #99
      00FF6C6FH   LINE      CODE     ---       #100
      00FF6C71H   LINE      CODE     ---       #102
      00FF6C71H   LINE      CODE     ---       #103
      00FF6C80H   LINE      CODE     ---       #105
      00FF6C85H   LINE      CODE     ---       #106
      00FF6C87H   LINE      CODE     ---       #107
      00FF6C87H   LINE      CODE     ---       #108
      00FF6CA2H   LINE      CODE     ---       #110
      00FF6CB8H   LINE      CODE     ---       #112
      00FF6CBDH   LINE      CODE     ---       #113
      00FF6CBDH   LINE      CODE     ---       #114
      00FF6CBDH   LINE      CODE     ---       #115
      00FF6CBDH   LINE      CODE     ---       #117
      00FF6CC2H   LINE      CODE     ---       #118
      ---         BLOCKEND  ---      ---       LVL=0

      00FF6FDEH   BLOCK     CODE     ---       LVL=0
      00000BE5H   SYMBOL    EDATA    INT       menu_id
      00FF6FE2H   BLOCK     CODE     NEAR LAB  LVL=1
      00000BE7H   SYMBOL    EDATA    INT       i
      00000BE9H   SYMBOL    EDATA    INT       len
      ---         BLOCKEND  ---      ---       LVL=1
      00FF6FDEH   LINE      CODE     ---       #121
      00FF6FE2H   LINE      CODE     ---       #122
      00FF6FE2H   LINE      CODE     ---       #123
      00FF6FE8H   LINE      CODE     ---       #124
      00FF6FF0H   LINE      CODE     ---       #125
      00FF6FF8H   LINE      CODE     ---       #127
      00FF700FH   LINE      CODE     ---       #129
      00FF7015H   LINE      CODE     ---       #130
      00FF702FH   LINE      CODE     ---       #132
      00FF7031H   LINE      CODE     ---       #133
      ---         BLOCKEND  ---      ---       LVL=0

      00FF5D96H   BLOCK     CODE     ---       LVL=0
      00000BEBH   SYMBOL    EDATA    ---       parameter
      00000BEFH   SYMBOL    EDATA    INT       change_unit_MIN
L251 LINKER/LOCATER V4.66.93.0                                                        07/31/2023  12:50:11  PAGE 97


      00FF5D96H   LINE      CODE     ---       #136
      00FF5D9EH   LINE      CODE     ---       #138
      00FF5DABH   LINE      CODE     ---       #139
      00FF5DAEH   LINE      CODE     ---       #142
      00FF5DB7H   LINE      CODE     ---       #144
      00FF5DCCH   LINE      CODE     ---       #145
      00FF5DD5H   LINE      CODE     ---       #147
      00FF5DEAH   LINE      CODE     ---       #148
      00FF5DEAH   LINE      CODE     ---       #151
      00FF5DFCH   LINE      CODE     ---       #153
      00FF5DFCH   LINE      CODE     ---       #154
      00FF5DFEH   LINE      CODE     ---       #156
      00FF5DFEH   LINE      CODE     ---       #157
      00FF5E1DH   LINE      CODE     ---       #158
      00FF5E1FH   LINE      CODE     ---       #159
      00FF5E1FH   LINE      CODE     ---       #160
      00FF5E3EH   LINE      CODE     ---       #161
      00FF5E40H   LINE      CODE     ---       #163
      00FF5E40H   LINE      CODE     ---       #164
      00FF5E4FH   LINE      CODE     ---       #165
      00FF5E54H   LINE      CODE     ---       #166
      00FF5E56H   LINE      CODE     ---       #167
      00FF5E56H   LINE      CODE     ---       #168
      00FF5E5CH   LINE      CODE     ---       #169
      00FF5E61H   LINE      CODE     ---       #170
      00FF5E61H   LINE      CODE     ---       #171
      00FF5E61H   LINE      CODE     ---       #173
      ---         BLOCKEND  ---      ---       LVL=0
      00000B10H   SYMBOL    EDATA    ---       parameter
      00000B14H   SYMBOL    EDATA    FLOAT     change_unit_MIN
      00000C6DH   SYMBOL    EDATA    ---       parameter

      00FF61F3H   BLOCK     CODE     ---       LVL=0
      00FF61F3H   LINE      CODE     ---       #249
      00FF61F3H   LINE      CODE     ---       #251
      00FF6259H   LINE      CODE     ---       #253
      00FF6259H   LINE      CODE     ---       #254
      00FF625CH   LINE      CODE     ---       #255
      00FF625EH   LINE      CODE     ---       #257
      00FF625EH   LINE      CODE     ---       #258
      00FF6261H   LINE      CODE     ---       #259
      00FF6263H   LINE      CODE     ---       #260
      00FF6263H   LINE      CODE     ---       #261
      00FF6266H   LINE      CODE     ---       #262
      00FF6268H   LINE      CODE     ---       #263
      00FF6268H   LINE      CODE     ---       #264
      00FF626BH   LINE      CODE     ---       #265
      00FF626DH   LINE      CODE     ---       #267
      00FF626DH   LINE      CODE     ---       #268
      00FF6270H   LINE      CODE     ---       #269
      00FF6272H   LINE      CODE     ---       #270
      00FF6272H   LINE      CODE     ---       #271
      00FF6275H   LINE      CODE     ---       #272
      00FF6277H   LINE      CODE     ---       #273
      00FF6277H   LINE      CODE     ---       #274
      00FF627AH   LINE      CODE     ---       #275
      00FF627CH   LINE      CODE     ---       #276
      00FF627CH   LINE      CODE     ---       #277
      00FF627FH   LINE      CODE     ---       #278
      00FF6281H   LINE      CODE     ---       #279
      00FF6281H   LINE      CODE     ---       #280
      00FF6284H   LINE      CODE     ---       #281
      00FF6286H   LINE      CODE     ---       #282
      00FF6286H   LINE      CODE     ---       #283
      00FF6289H   LINE      CODE     ---       #284
L251 LINKER/LOCATER V4.66.93.0                                                        07/31/2023  12:50:11  PAGE 98


      00FF628BH   LINE      CODE     ---       #285
      00FF628BH   LINE      CODE     ---       #286
      00FF628EH   LINE      CODE     ---       #287
      00FF6290H   LINE      CODE     ---       #289
      00FF6290H   LINE      CODE     ---       #290
      00FF6293H   LINE      CODE     ---       #291
      00FF6293H   LINE      CODE     ---       #293
      00FF6293H   LINE      CODE     ---       #294
      00FF6293H   LINE      CODE     ---       #296
      00FF6293H   LINE      CODE     ---       #297
      ---         BLOCKEND  ---      ---       LVL=0

      00FF59EEH   BLOCK     CODE     ---       LVL=0
      00FF59EEH   LINE      CODE     ---       #305
      00FF59EEH   LINE      CODE     ---       #307
      00FF59F3H   LINE      CODE     ---       #308
      00FF59F5H   LINE      CODE     ---       #310
      00FF5A06H   LINE      CODE     ---       #311
      00FF5A10H   LINE      CODE     ---       #313
      00FF5A23H   LINE      CODE     ---       #314
      00FF5A25H   LINE      CODE     ---       #317
      00FF5A38H   LINE      CODE     ---       #318
      00FF5A38H   LINE      CODE     ---       #320
      00FF5A4BH   LINE      CODE     ---       #321
      00FF5A5EH   LINE      CODE     ---       #323
      00FF5A61H   LINE      CODE     ---       #324
      00FF5A6AH   LINE      CODE     ---       #326
      00FF5A82H   LINE      CODE     ---       #328
      00FF5A8CH   LINE      CODE     ---       #329
      00FF5A91H   LINE      CODE     ---       #330
      00FF5A96H   LINE      CODE     ---       #331
      00FF5A98H   LINE      CODE     ---       #333
      00FF5AA1H   LINE      CODE     ---       #335
      00FF5AA4H   LINE      CODE     ---       #338
      00FF5AA9H   LINE      CODE     ---       #339
      00FF5ABCH   LINE      CODE     ---       #340
      00FF5ACFH   LINE      CODE     ---       #342
      00FF5AD6H   LINE      CODE     ---       #343
      00FF5AD9H   LINE      CODE     ---       #344
      00FF5AE0H   LINE      CODE     ---       #345
      00FF5AE3H   LINE      CODE     ---       #346
      00FF5AE8H   LINE      CODE     ---       #347
      00FF5AE8H   LINE      CODE     ---       #349
      00FF5AEDH   LINE      CODE     ---       #350
      ---         BLOCKEND  ---      ---       LVL=0

      00FF53E7H   BLOCK     CODE     ---       LVL=0
      00000CFDH   SYMBOL    EDATA    BYTE      control_line
      00FF53E7H   LINE      CODE     ---       #354
      00FF53EBH   LINE      CODE     ---       #356
      00FF53FCH   LINE      CODE     ---       #357
      00FF540FH   LINE      CODE     ---       #358
      00FF5422H   LINE      CODE     ---       #359
      00FF5437H   LINE      CODE     ---       #360
      00FF544AH   LINE      CODE     ---       #361
      00FF545FH   LINE      CODE     ---       #362
      00FF5472H   LINE      CODE     ---       #363
      00FF5487H   LINE      CODE     ---       #364
      00FF549AH   LINE      CODE     ---       #366
      00FF54ADH   LINE      CODE     ---       #367
      00FF54C2H   LINE      CODE     ---       #368
      00FF54D5H   LINE      CODE     ---       #369
      00FF54EAH   LINE      CODE     ---       #370
      00FF54FDH   LINE      CODE     ---       #371
      00FF5512H   LINE      CODE     ---       #372
L251 LINKER/LOCATER V4.66.93.0                                                        07/31/2023  12:50:11  PAGE 99


      00FF5525H   LINE      CODE     ---       #373
      00FF5538H   LINE      CODE     ---       #375
      00FF554BH   LINE      CODE     ---       #377
      ---         BLOCKEND  ---      ---       LVL=0

      00FF6F8AH   BLOCK     CODE     ---       LVL=0
      00FF6F8AH   LINE      CODE     ---       #379
      00FF6F8AH   LINE      CODE     ---       #381
      00FF6F90H   LINE      CODE     ---       #382
      00FF6F98H   LINE      CODE     ---       #384
      00FF6F9AH   LINE      CODE     ---       #386
      00FF6F9FH   LINE      CODE     ---       #388
      00FF6FA2H   LINE      CODE     ---       #389
      00FF6FABH   LINE      CODE     ---       #391
      00FF6FB1H   LINE      CODE     ---       #392
      00FF6FB1H   LINE      CODE     ---       #394
      00FF6FBDH   LINE      CODE     ---       #396
      00FF6FC2H   LINE      CODE     ---       #398
      00FF6FCAH   LINE      CODE     ---       #399
      00FF6FCFH   LINE      CODE     ---       #400
      00FF6FD1H   LINE      CODE     ---       #401
      00FF6FDAH   LINE      CODE     ---       #403
      00FF6FDDH   LINE      CODE     ---       #404
      ---         BLOCKEND  ---      ---       LVL=0

      00FF4CF6H   BLOCK     CODE     ---       LVL=0
      00FF4CF6H   LINE      CODE     ---       #406
      00FF4CF6H   LINE      CODE     ---       #408
      00FF4CFCH   LINE      CODE     ---       #409
      00FF4CFFH   LINE      CODE     ---       #411
      00FF4D12H   LINE      CODE     ---       #412
      00FF4D27H   LINE      CODE     ---       #413
      00FF4D3AH   LINE      CODE     ---       #414
      00FF4D4FH   LINE      CODE     ---       #415
      00FF4D62H   LINE      CODE     ---       #416
      00FF4D77H   LINE      CODE     ---       #417
      00FF4D8AH   LINE      CODE     ---       #419
      00FF4D97H   LINE      CODE     ---       #421
      00FF4DA8H   LINE      CODE     ---       #422
      00FF4DBBH   LINE      CODE     ---       #423
      00FF4DCEH   LINE      CODE     ---       #424
      00FF4DE3H   LINE      CODE     ---       #425
      00FF4DF6H   LINE      CODE     ---       #426
      00FF4E0BH   LINE      CODE     ---       #427
      00FF4E1EH   LINE      CODE     ---       #428
      00FF4E33H   LINE      CODE     ---       #429
      00FF4E46H   LINE      CODE     ---       #431
      00FF4E59H   LINE      CODE     ---       #432
      00FF4E5CH   LINE      CODE     ---       #433
      00FF4E65H   LINE      CODE     ---       #435
      00FF4E6BH   LINE      CODE     ---       #436
      00FF4E6DH   LINE      CODE     ---       #439
      00FF4E79H   LINE      CODE     ---       #441
      00FF4E7EH   LINE      CODE     ---       #442
      00FF4E8FH   LINE      CODE     ---       #443
      00FF4EA2H   LINE      CODE     ---       #444
      00FF4EB5H   LINE      CODE     ---       #445
      00FF4EBAH   LINE      CODE     ---       #446
      00FF4EBDH   LINE      CODE     ---       #447
      00FF4EC6H   LINE      CODE     ---       #449
      00FF4ECCH   LINE      CODE     ---       #450
      00FF4ECCH   LINE      CODE     ---       #452
      00FF4ED8H   LINE      CODE     ---       #453
      00FF4EDBH   LINE      CODE     ---       #455
      00FF4EDEH   LINE      CODE     ---       #456
L251 LINKER/LOCATER V4.66.93.0                                                        07/31/2023  12:50:11  PAGE 100


      00FF4EE4H   LINE      CODE     ---       #457
      00FF4EEAH   LINE      CODE     ---       #458
      00FF4EF0H   LINE      CODE     ---       #459
      00FF4EF5H   LINE      CODE     ---       #460
      00FF4EFAH   LINE      CODE     ---       #461
      ---         BLOCKEND  ---      ---       LVL=0

      00FF0010H   BLOCK     CODE     ---       LVL=0
      00FF0010H   LINE      CODE     ---       #463
      00FF0010H   LINE      CODE     ---       #466
      ---         BLOCKEND  ---      ---       LVL=0

      00FF57BEH   BLOCK     CODE     ---       LVL=0
      00000CFEH   SYMBOL    EDATA    BYTE      control_line
      00FF57BEH   LINE      CODE     ---       #471
      00FF57C2H   LINE      CODE     ---       #473
      00FF57D3H   LINE      CODE     ---       #474
      00FF57E6H   LINE      CODE     ---       #475
      00FF57F9H   LINE      CODE     ---       #476
      00FF580CH   LINE      CODE     ---       #477
      00FF581FH   LINE      CODE     ---       #478
      00FF5832H   LINE      CODE     ---       #479
      00FF5845H   LINE      CODE     ---       #480
      00FF585AH   LINE      CODE     ---       #481
      00FF586FH   LINE      CODE     ---       #482
      00FF5884H   LINE      CODE     ---       #483
      00FF5899H   LINE      CODE     ---       #484
      00FF58AEH   LINE      CODE     ---       #485
      00FF58C3H   LINE      CODE     ---       #487
      00FF58D6H   LINE      CODE     ---       #488
      ---         BLOCKEND  ---      ---       LVL=0

      00FF7A1DH   BLOCK     CODE     ---       LVL=0
      00FF7A1DH   LINE      CODE     ---       #490
      00FF7A1DH   LINE      CODE     ---       #492
      00FF7A1FH   LINE      CODE     ---       #494
      00FF7A24H   LINE      CODE     ---       #495
      00FF7A27H   LINE      CODE     ---       #496
      00FF7A30H   LINE      CODE     ---       #497
      00FF7A33H   LINE      CODE     ---       #498
      00FF7A36H   LINE      CODE     ---       #499
      ---         BLOCKEND  ---      ---       LVL=0

      00FF792BH   BLOCK     CODE     ---       LVL=0
      00FF792BH   LINE      CODE     ---       #501
      00FF792BH   LINE      CODE     ---       #503
      00FF7930H   LINE      CODE     ---       #504
      00FF793BH   LINE      CODE     ---       #505
      00FF7946H   LINE      CODE     ---       #506
      ---         BLOCKEND  ---      ---       LVL=0

      00FF7963H   BLOCK     CODE     ---       LVL=0
      00FF7963H   LINE      CODE     ---       #507
      00FF7963H   LINE      CODE     ---       #509
      00FF7968H   LINE      CODE     ---       #510
      00FF7973H   LINE      CODE     ---       #511
      00FF797EH   LINE      CODE     ---       #512
      ---         BLOCKEND  ---      ---       LVL=0

      00FF797FH   BLOCK     CODE     ---       LVL=0
      00FF797FH   LINE      CODE     ---       #513
      00FF797FH   LINE      CODE     ---       #515
      00FF7984H   LINE      CODE     ---       #516
      00FF798FH   LINE      CODE     ---       #517
      00FF799AH   LINE      CODE     ---       #518
L251 LINKER/LOCATER V4.66.93.0                                                        07/31/2023  12:50:11  PAGE 101


      ---         BLOCKEND  ---      ---       LVL=0

      00FF790FH   BLOCK     CODE     ---       LVL=0
      00FF790FH   LINE      CODE     ---       #519
      00FF790FH   LINE      CODE     ---       #521
      00FF7914H   LINE      CODE     ---       #522
      00FF791FH   LINE      CODE     ---       #523
      00FF792AH   LINE      CODE     ---       #524
      ---         BLOCKEND  ---      ---       LVL=0

      00FF78F3H   BLOCK     CODE     ---       LVL=0
      00FF78F3H   LINE      CODE     ---       #525
      00FF78F3H   LINE      CODE     ---       #527
      00FF78F8H   LINE      CODE     ---       #528
      00FF7903H   LINE      CODE     ---       #529
      00FF790EH   LINE      CODE     ---       #530
      ---         BLOCKEND  ---      ---       LVL=0

      00FF7947H   BLOCK     CODE     ---       LVL=0
      00FF7947H   LINE      CODE     ---       #531
      00FF7947H   LINE      CODE     ---       #533
      00FF794CH   LINE      CODE     ---       #534
      00FF7957H   LINE      CODE     ---       #535
      00FF7962H   LINE      CODE     ---       #536
      ---         BLOCKEND  ---      ---       LVL=0

      00FF73CEH   BLOCK     CODE     ---       LVL=0
      00FF73CEH   LINE      CODE     ---       #538
      00FF73CEH   LINE      CODE     ---       #540
      00FF73E1H   LINE      CODE     ---       #541
      00FF73E4H   LINE      CODE     ---       #542
      00FF73EAH   LINE      CODE     ---       #543
      00FF73F0H   LINE      CODE     ---       #544
      00FF73F6H   LINE      CODE     ---       #545
      00FF73FBH   LINE      CODE     ---       #546
      00FF7402H   LINE      CODE     ---       #547
      00FF7405H   LINE      CODE     ---       #548
      00FF740CH   LINE      CODE     ---       #549
      00FF740FH   LINE      CODE     ---       #550
      00FF7414H   LINE      CODE     ---       #551
      ---         BLOCKEND  ---      ---       LVL=0

      ---         MODULE    ---      ---       eeprom
      00FF609BH   PUBLIC    CODE     ---       eeprom_init
      00FF6C00H   PUBLIC    CODE     ---       read_int
      00FF6854H   PUBLIC    CODE     ---       save_int
      00FF7743H   PUBLIC    CODE     ---       eeprom_flash
      000002B7H   PUBLIC    EDATA    ---       date_buff
      0000031BH   PUBLIC    EDATA    BYTE      eeprom_init_time
      000000D0H   SFRSYM    DATA     BYTE      PSW
      0000009DH   SFRSYM    DATA     BYTE      IRCBAND
      00000097H   SFRSYM    DATA     BYTE      AUXR2
      000000EFH   SFRSYM    DATA     BYTE      AUXINTIF
      000000FDH   SFRSYM    DATA     BYTE      S4CON
      000000ACH   SFRSYM    DATA     BYTE      S3CON
      0000009AH   SFRSYM    DATA     BYTE      S2CON
      000000B7H   SFRSYM    DATA     BYTE      IPH
      000000CDH   SFRSYM    DATA     BYTE      SPSTAT
      000000DDH   SFRSYM    DATA     BYTE      T4T3M
      000000C1H   SFRSYM    DATA     BYTE      WDT_CONTR
      000000DFH   SFRSYM    DATA     BYTE      IP3
      000000F4H   SFRSYM    DATA     BYTE      USBCON
      000000B5H   SFRSYM    DATA     BYTE      IP2
      000000FFH   SFRSYM    DATA     BYTE      RSTCFG
      000000F9H   SFRSYM    DATA     BYTE      LINICR
L251 LINKER/LOCATER V4.66.93.0                                                        07/31/2023  12:50:11  PAGE 102


      0000008EH   SFRSYM    DATA     BYTE      AUXR
      000000AFH   SFRSYM    DATA     BYTE      IE2
      00000088H   SFRSYM    DATA     BYTE      TCON
      00000098H   SFRSYM    DATA     BYTE      SCON
      000000F1H   SFRSYM    DATA     BYTE      CANICR
      00000087H   SFRSYM    DATA     BYTE      PCON
      000000BCH   SFRSYM    DATA     BYTE      ADC_CONTR
      000000E7H   SFRSYM    DATA     BYTE      CMPCR2
      000000E6H   SFRSYM    DATA     BYTE      CMPCR1
      000000B8H   SFRSYM    DATA     BYTE      IP
      0000008FH   SFRSYM    DATA     BYTE      INTCLKO
      000000EEH   SFRSYM    DATA     BYTE      IP3H
      000000B6H   SFRSYM    DATA     BYTE      IP2H
      000000A8H   SFRSYM    DATA     BYTE      IE
      000000BBH   SFRSYM    DATA     BYTE      P_SW3
      000000BAH   SFRSYM    DATA     BYTE      P_SW2
      000000A2H   SFRSYM    DATA     BYTE      P_SW1
      000000CEH   SFRSYM    DATA     BYTE      SPCTL
      000000F8H   SFRSYM    DATA     BYTE      P7
      000000E8H   SFRSYM    DATA     BYTE      P6
      000000C8H   SFRSYM    DATA     BYTE      P5
      000000C0H   SFRSYM    DATA     BYTE      P4
      000000B0H   SFRSYM    DATA     BYTE      P3
      000000A0H   SFRSYM    DATA     BYTE      P2
      00000090H   SFRSYM    DATA     BYTE      P1
      00000080H   SFRSYM    DATA     BYTE      P0

      00FF609BH   BLOCK     CODE     ---       LVL=0
      00FF609BH   LINE      CODE     ---       #5
      00FF609BH   LINE      CODE     ---       #7
      00FF609EH   LINE      CODE     ---       #9
      00FF60AFH   LINE      CODE     ---       #17
      00FF60B7H   LINE      CODE     ---       #18
      00FF60C0H   LINE      CODE     ---       #20
      00FF60C8H   LINE      CODE     ---       #22
      00FF60D5H   LINE      CODE     ---       #23
      00FF60E2H   LINE      CODE     ---       #24
      00FF60EFH   LINE      CODE     ---       #25
      00FF60FCH   LINE      CODE     ---       #26
      00FF6109H   LINE      CODE     ---       #27
      00FF6116H   LINE      CODE     ---       #28
      00FF6116H   LINE      CODE     ---       #31
      00FF611FH   LINE      CODE     ---       #32
      00FF6128H   LINE      CODE     ---       #33
      00FF6131H   LINE      CODE     ---       #34
      00FF613AH   LINE      CODE     ---       #35
      00FF6143H   LINE      CODE     ---       #36
      00FF614CH   LINE      CODE     ---       #37
      ---         BLOCKEND  ---      ---       LVL=0

      00FF7743H   BLOCK     CODE     ---       LVL=0
      00FF7743H   LINE      CODE     ---       #39
      00FF7743H   LINE      CODE     ---       #42
      00FF7750H   LINE      CODE     ---       #43
      00FF775DH   LINE      CODE     ---       #44
      00FF776AH   LINE      CODE     ---       #45
      ---         BLOCKEND  ---      ---       LVL=0

      00FF6854H   BLOCK     CODE     ---       LVL=0
      0000093FH   SYMBOL    EDATA    LONG      input
      00000943H   SYMBOL    EDATA    BYTE      value_bit
      00FF685CH   BLOCK     CODE     NEAR LAB  LVL=1
      00000944H   SYMBOL    EDATA    BYTE      i
      00000945H   SYMBOL    EDATA    BYTE      begin
      00000946H   SYMBOL    EDATA    ---       p
L251 LINKER/LOCATER V4.66.93.0                                                        07/31/2023  12:50:11  PAGE 103


      ---         BLOCKEND  ---      ---       LVL=1
      00FF6854H   LINE      CODE     ---       #47
      00FF685CH   LINE      CODE     ---       #48
      00FF685CH   LINE      CODE     ---       #50
      00FF6869H   LINE      CODE     ---       #51
      00FF6871H   LINE      CODE     ---       #52
      00FF6878H   LINE      CODE     ---       #54
      00FF689FH   LINE      CODE     ---       #55
      00FF68B6H   LINE      CODE     ---       #56
      00FF68C3H   LINE      CODE     ---       #57
      ---         BLOCKEND  ---      ---       LVL=0

      00FF6C00H   BLOCK     CODE     ---       LVL=0
      0000094AH   SYMBOL    EDATA    BYTE      value_bit
      00FF6C04H   BLOCK     CODE     NEAR LAB  LVL=1
      0000094BH   SYMBOL    EDATA    BYTE      i
      0000094CH   SYMBOL    EDATA    BYTE      begin
      0000094DH   SYMBOL    EDATA    LONG      output
      00000951H   SYMBOL    EDATA    ---       p
      ---         BLOCKEND  ---      ---       LVL=1
      00FF6C00H   LINE      CODE     ---       #59
      00FF6C04H   LINE      CODE     ---       #60
      00FF6C04H   LINE      CODE     ---       #62
      00FF6C11H   LINE      CODE     ---       #64
      00FF6C19H   LINE      CODE     ---       #65
      00FF6C20H   LINE      CODE     ---       #67
      00FF6C46H   LINE      CODE     ---       #68
      00FF6C5DH   LINE      CODE     ---       #69
      00FF6C61H   LINE      CODE     ---       #70
      ---         BLOCKEND  ---      ---       LVL=0
      00000955H   SYMBOL    EDATA    FLOAT     input
      00000959H   SYMBOL    EDATA    BYTE      value_bit
      0000095AH   SYMBOL    EDATA    BYTE      i
      0000095BH   SYMBOL    EDATA    BYTE      begin
      0000095CH   SYMBOL    EDATA    ---       p
      00000960H   SYMBOL    EDATA    BYTE      value_bit
      00000961H   SYMBOL    EDATA    BYTE      i
      00000962H   SYMBOL    EDATA    BYTE      begin
      00000963H   SYMBOL    EDATA    FLOAT     output
      00000967H   SYMBOL    EDATA    ---       p

      ---         MODULE    ---      ---       rtc
      00FF66F3H   PUBLIC    CODE     ---       RTC_Init
      00FF614DH   PUBLIC    CODE     ---       RTC_Set
      00FF50ECH   PUBLIC    CODE     ---       RTC_Isr
      00000020H.2 PUBLIC    BIT      BIT       ?RTC_Init?BIT
      00000020H.0 PUBLIC    BIT      BIT       ?RTCI_Set?BIT
      000000D0H   SFRSYM    DATA     BYTE      PSW
      0000009DH   SFRSYM    DATA     BYTE      IRCBAND
      00000097H   SFRSYM    DATA     BYTE      AUXR2
      000000EFH   SFRSYM    DATA     BYTE      AUXINTIF
      000000FDH   SFRSYM    DATA     BYTE      S4CON
      000000ACH   SFRSYM    DATA     BYTE      S3CON
      0000009AH   SFRSYM    DATA     BYTE      S2CON
      000000B7H   SFRSYM    DATA     BYTE      IPH
      000000CDH   SFRSYM    DATA     BYTE      SPSTAT
      000000DDH   SFRSYM    DATA     BYTE      T4T3M
      000000C1H   SFRSYM    DATA     BYTE      WDT_CONTR
      000000DFH   SFRSYM    DATA     BYTE      IP3
      000000F4H   SFRSYM    DATA     BYTE      USBCON
      000000B5H   SFRSYM    DATA     BYTE      IP2
      000000FFH   SFRSYM    DATA     BYTE      RSTCFG
      000000F9H   SFRSYM    DATA     BYTE      LINICR
      0000008EH   SFRSYM    DATA     BYTE      AUXR
      000000AFH   SFRSYM    DATA     BYTE      IE2
L251 LINKER/LOCATER V4.66.93.0                                                        07/31/2023  12:50:11  PAGE 104


      00000088H   SFRSYM    DATA     BYTE      TCON
      00000098H   SFRSYM    DATA     BYTE      SCON
      000000F1H   SFRSYM    DATA     BYTE      CANICR
      00000087H   SFRSYM    DATA     BYTE      PCON
      000000BCH   SFRSYM    DATA     BYTE      ADC_CONTR
      000000E7H   SFRSYM    DATA     BYTE      CMPCR2
      000000E6H   SFRSYM    DATA     BYTE      CMPCR1
      000000B8H   SFRSYM    DATA     BYTE      IP
      0000008FH   SFRSYM    DATA     BYTE      INTCLKO
      000000EEH   SFRSYM    DATA     BYTE      IP3H
      000000B6H   SFRSYM    DATA     BYTE      IP2H
      000000A8H   SFRSYM    DATA     BYTE      IE
      000000BBH   SFRSYM    DATA     BYTE      P_SW3
      000000BAH   SFRSYM    DATA     BYTE      P_SW2
      000000A2H   SFRSYM    DATA     BYTE      P_SW1
      000000CEH   SFRSYM    DATA     BYTE      SPCTL
      000000F8H   SFRSYM    DATA     BYTE      P7
      000000E8H   SFRSYM    DATA     BYTE      P6
      000000C8H   SFRSYM    DATA     BYTE      P5
      000000C0H   SFRSYM    DATA     BYTE      P4
      000000B0H   SFRSYM    DATA     BYTE      P3
      000000A0H   SFRSYM    DATA     BYTE      P2
      00000090H   SFRSYM    DATA     BYTE      P1
      00000080H   SFRSYM    DATA     BYTE      P0

      00FF66F3H   BLOCK     CODE     ---       LVL=0
      00000020H.2 SYMBOL    BIT      BIT       mod
      00FF66F3H   LINE      CODE     ---       #10
      00FF66F3H   LINE      CODE     ---       #12
      00FF66F6H   LINE      CODE     ---       #15
      00FF6703H   LINE      CODE     ---       #16
      00FF6711H   LINE      CODE     ---       #17
      00FF6723H   LINE      CODE     ---       #18
      00FF6725H   LINE      CODE     ---       #22
      00FF6732H   LINE      CODE     ---       #23
      00FF6740H   LINE      CODE     ---       #24
      00FF6752H   LINE      CODE     ---       #25
      00FF6752H   LINE      CODE     ---       #26
      00FF675EH   LINE      CODE     ---       #27
      00FF676BH   LINE      CODE     ---       #28
      ---         BLOCKEND  ---      ---       LVL=0

      00FF614DH   BLOCK     CODE     ---       LVL=0
      00000B42H   SYMBOL    EDATA    BYTE      Year
      00000B43H   SYMBOL    EDATA    BYTE      Month
      00000B44H   SYMBOL    EDATA    BYTE      Day
      00000B45H   SYMBOL    EDATA    BYTE      Hour
      00000B46H   SYMBOL    EDATA    BYTE      Min
      00000B47H   SYMBOL    EDATA    BYTE      Sec
      00000B48H   SYMBOL    EDATA    BYTE      Ssec
      00FF614DH   LINE      CODE     ---       #42
      00FF6169H   LINE      CODE     ---       #44
      00FF6178H   LINE      CODE     ---       #45
      00FF6187H   LINE      CODE     ---       #46
      00FF6196H   LINE      CODE     ---       #47
      00FF61A5H   LINE      CODE     ---       #48
      00FF61B4H   LINE      CODE     ---       #49
      00FF61C3H   LINE      CODE     ---       #50
      00FF61D2H   LINE      CODE     ---       #51
      00FF61E4H   LINE      CODE     ---       #52
      00FF61F2H   LINE      CODE     ---       #53
      ---         BLOCKEND  ---      ---       LVL=0
      00000020H.0 SYMBOL    BIT      BIT       Ifen
      00000020H.1 SYMBOL    BIT      BIT       Numsen
      00000CFFH   SYMBOL    EDATA    BYTE      mod
L251 LINKER/LOCATER V4.66.93.0                                                        07/31/2023  12:50:11  PAGE 105



      00FF50ECH   BLOCK     CODE     ---       LVL=0
      00FF50ECH   LINE      CODE     ---       #68
      00FF5102H   LINE      CODE     ---       #71
      00FF5110H   LINE      CODE     ---       #74
      00FF5122H   LINE      CODE     ---       #75
      00FF5125H   LINE      CODE     ---       #76
      00FF513EH   LINE      CODE     ---       #79
      00FF5150H   LINE      CODE     ---       #80
      00FF5153H   LINE      CODE     ---       #81
      00FF516CH   LINE      CODE     ---       #84
      00FF517EH   LINE      CODE     ---       #85
      00FF5181H   LINE      CODE     ---       #86
      00FF519AH   LINE      CODE     ---       #89
      00FF51ACH   LINE      CODE     ---       #90
      00FF51AFH   LINE      CODE     ---       #91
      00FF51C8H   LINE      CODE     ---       #93
      00FF51CDH   LINE      CODE     ---       #94
      00FF51DFH   LINE      CODE     ---       #95
      00FF51E2H   LINE      CODE     ---       #96
      00FF51FBH   LINE      CODE     ---       #99
      00FF520DH   LINE      CODE     ---       #100
      00FF520FH   LINE      CODE     ---       #101
      00FF5228H   LINE      CODE     ---       #104
      00FF523AH   LINE      CODE     ---       #105
      00FF523CH   LINE      CODE     ---       #106
      00FF5255H   LINE      CODE     ---       #109
      00FF5267H   LINE      CODE     ---       #110
      ---         BLOCKEND  ---      ---       LVL=0

      ---         MODULE    ---      ---       user_time
      00FF64E0H   PUBLIC    CODE     ---       Timer_Finish
      00FF63C0H   PUBLIC    CODE     ---       User_Time_Sync_RTC
      00FF656EH   PUBLIC    CODE     ---       Time_Input_Limit
      00FF7AF2H   PUBLIC    CODE     ---       User_Time_Back_0
      0000070DH   PUBLIC    EDATA    INT       timer_finish_flag
      0000070FH   PUBLIC    EDATA    INT       break_sec
      00000711H   PUBLIC    EDATA    INT       target_sec
      00000713H   PUBLIC    EDATA    INT       break_hour
      00000715H   PUBLIC    EDATA    INT       target_hour
      00000717H   PUBLIC    EDATA    INT       break_min
      00000719H   PUBLIC    EDATA    INT       target_min
      0000071BH   PUBLIC    EDATA    INT       timer_start_flag
      0000071DH   PUBLIC    EDATA    INT       last_sec
      0000071FH   PUBLIC    EDATA    BYTE      time_mod
      00000720H   PUBLIC    EDATA    INT       user_sec
      00000722H   PUBLIC    EDATA    INT       user_hour
      00000724H   PUBLIC    EDATA    INT       user_min
      00000726H   PUBLIC    EDATA    INT       break_finish_flag
      000000D0H   SFRSYM    DATA     BYTE      PSW
      0000009DH   SFRSYM    DATA     BYTE      IRCBAND
      00000097H   SFRSYM    DATA     BYTE      AUXR2
      000000EFH   SFRSYM    DATA     BYTE      AUXINTIF
      000000FDH   SFRSYM    DATA     BYTE      S4CON
      000000ACH   SFRSYM    DATA     BYTE      S3CON
      0000009AH   SFRSYM    DATA     BYTE      S2CON
      000000B7H   SFRSYM    DATA     BYTE      IPH
      000000CDH   SFRSYM    DATA     BYTE      SPSTAT
      000000DDH   SFRSYM    DATA     BYTE      T4T3M
      000000C1H   SFRSYM    DATA     BYTE      WDT_CONTR
      000000DFH   SFRSYM    DATA     BYTE      IP3
      000000F4H   SFRSYM    DATA     BYTE      USBCON
      000000B5H   SFRSYM    DATA     BYTE      IP2
      000000FFH   SFRSYM    DATA     BYTE      RSTCFG
      000000F9H   SFRSYM    DATA     BYTE      LINICR
L251 LINKER/LOCATER V4.66.93.0                                                        07/31/2023  12:50:11  PAGE 106


      0000008EH   SFRSYM    DATA     BYTE      AUXR
      000000AFH   SFRSYM    DATA     BYTE      IE2
      000000E8H.7 SFRSYM    DATA     BIT       P67
      00000088H   SFRSYM    DATA     BYTE      TCON
      00000098H   SFRSYM    DATA     BYTE      SCON
      000000F1H   SFRSYM    DATA     BYTE      CANICR
      00000087H   SFRSYM    DATA     BYTE      PCON
      000000BCH   SFRSYM    DATA     BYTE      ADC_CONTR
      000000E7H   SFRSYM    DATA     BYTE      CMPCR2
      000000E6H   SFRSYM    DATA     BYTE      CMPCR1
      000000B8H   SFRSYM    DATA     BYTE      IP
      0000008FH   SFRSYM    DATA     BYTE      INTCLKO
      000000EEH   SFRSYM    DATA     BYTE      IP3H
      000000B6H   SFRSYM    DATA     BYTE      IP2H
      000000A8H   SFRSYM    DATA     BYTE      IE
      000000BBH   SFRSYM    DATA     BYTE      P_SW3
      000000BAH   SFRSYM    DATA     BYTE      P_SW2
      000000A2H   SFRSYM    DATA     BYTE      P_SW1
      000000CEH   SFRSYM    DATA     BYTE      SPCTL
      000000F8H   SFRSYM    DATA     BYTE      P7
      000000E8H   SFRSYM    DATA     BYTE      P6
      000000C8H   SFRSYM    DATA     BYTE      P5
      000000C0H   SFRSYM    DATA     BYTE      P4
      000000B0H   SFRSYM    DATA     BYTE      P3
      000000A0H   SFRSYM    DATA     BYTE      P2
      00000090H   SFRSYM    DATA     BYTE      P1
      00000080H   SFRSYM    DATA     BYTE      P0

      00FF63C0H   BLOCK     CODE     ---       LVL=0
      00000D00H   SYMBOL    EDATA    BYTE      mod
      00FF63C0H   LINE      CODE     ---       #12
      00FF63C4H   LINE      CODE     ---       #14
      00FF63D9H   LINE      CODE     ---       #16
      00FF63E0H   LINE      CODE     ---       #18
      00FF63E0H   LINE      CODE     ---       #19
      00FF63EEH   LINE      CODE     ---       #21
      00FF63FAH   LINE      CODE     ---       #23
      00FF6400H   LINE      CODE     ---       #24
      00FF640EH   LINE      CODE     ---       #25
      00FF640EH   LINE      CODE     ---       #26
      00FF641AH   LINE      CODE     ---       #28
      00FF6420H   LINE      CODE     ---       #29
      00FF642EH   LINE      CODE     ---       #30
      00FF642EH   LINE      CODE     ---       #31
      00FF643AH   LINE      CODE     ---       #33
      00FF6440H   LINE      CODE     ---       #34
      00FF6440H   LINE      CODE     ---       #36
      00FF6440H   LINE      CODE     ---       #38
      00FF6440H   LINE      CODE     ---       #39
      00FF6440H   LINE      CODE     ---       #40
      00FF6440H   LINE      CODE     ---       #41
      00FF6440H   LINE      CODE     ---       #43
      00FF6451H   LINE      CODE     ---       #44
      ---         BLOCKEND  ---      ---       LVL=0

      00FF7AF2H   BLOCK     CODE     ---       LVL=0
      00FF7AF2H   LINE      CODE     ---       #46
      00FF7AF2H   LINE      CODE     ---       #48
      00FF7AF8H   LINE      CODE     ---       #49
      00FF7AFEH   LINE      CODE     ---       #50
      00FF7B04H   LINE      CODE     ---       #51
      ---         BLOCKEND  ---      ---       LVL=0

      00FF64E0H   BLOCK     CODE     ---       LVL=0
      00FF64E0H   LINE      CODE     ---       #53
L251 LINKER/LOCATER V4.66.93.0                                                        07/31/2023  12:50:11  PAGE 107


      00FF64E0H   LINE      CODE     ---       #55
      00FF650EH   LINE      CODE     ---       #58
      00FF6516H   LINE      CODE     ---       #59
      00FF6519H   LINE      CODE     ---       #60
      00FF6520H   LINE      CODE     ---       #61
      00FF6523H   LINE      CODE     ---       #63
      00FF6526H   LINE      CODE     ---       #64
      00FF6528H   LINE      CODE     ---       #66
      00FF6558H   LINE      CODE     ---       #68
      00FF6560H   LINE      CODE     ---       #69
      00FF6563H   LINE      CODE     ---       #70
      00FF656AH   LINE      CODE     ---       #71
      00FF656DH   LINE      CODE     ---       #72
      ---         BLOCKEND  ---      ---       LVL=0

      00FF656EH   BLOCK     CODE     ---       LVL=0
      00000BF1H   SYMBOL    EDATA    ---       parameter
      00000BF5H   SYMBOL    EDATA    INT       time_type
      00FF656EH   LINE      CODE     ---       #75
      00FF6576H   LINE      CODE     ---       #77
      00FF6586H   LINE      CODE     ---       #79
      00FF6586H   LINE      CODE     ---       #80
      00FF65A2H   LINE      CODE     ---       #82
      00FF65ABH   LINE      CODE     ---       #83
      00FF65ABH   LINE      CODE     ---       #84
      00FF65ADH   LINE      CODE     ---       #85
      00FF65ADH   LINE      CODE     ---       #86
      00FF65C9H   LINE      CODE     ---       #88
      00FF65D2H   LINE      CODE     ---       #89
      00FF65D2H   LINE      CODE     ---       #90
      00FF65D4H   LINE      CODE     ---       #91
      00FF65D4H   LINE      CODE     ---       #92
      00FF65F0H   LINE      CODE     ---       #94
      00FF65F9H   LINE      CODE     ---       #95
      00FF65F9H   LINE      CODE     ---       #96
      00FF65F9H   LINE      CODE     ---       #97
      00FF65F9H   LINE      CODE     ---       #98
      ---         BLOCKEND  ---      ---       LVL=0

      ---         MODULE    ---      ---       SEEKFREE_CONFIG
      00FF00A6H   PUBLIC    CODE     ---       dl1b_default_configuration
      00FF012DH   PUBLIC    CODE     ---       imu660ra_config_file

      ---         MODULE    ---      ---       ?C?FPADD
      00FF2F3BH   PUBLIC    CODE     ---       ?C?FPADD
      00FF2F38H   PUBLIC    CODE     ---       ?C?FPSUB

      ---         MODULE    ---      ---       ?C?FPMUL
      00FF2FF3H   PUBLIC    CODE     ---       ?C?FPMUL

      ---         MODULE    ---      ---       ?C?FPDIV
      00FF3093H   PUBLIC    CODE     ---       ?C?FPDIV

      ---         MODULE    ---      ---       ?C?FPCMP
      00FF3116H   PUBLIC    CODE     ---       ?C?FPCMP
      00FF3114H   PUBLIC    CODE     ---       ?C?FPCMP3

      ---         MODULE    ---      ---       ?C?FCAST
      00FF3164H   PUBLIC    CODE     NEAR LAB  ?C?FCASTC
      00FF315FH   PUBLIC    CODE     NEAR LAB  ?C?FCASTI
      00FF315AH   PUBLIC    CODE     NEAR LAB  ?C?FCASTL

      ---         MODULE    ---      ---       ?C?CASTF
      00FF3197H   PUBLIC    CODE     NEAR LAB  ?C?CASTF

L251 LINKER/LOCATER V4.66.93.0                                                        07/31/2023  12:50:11  PAGE 108


      ---         MODULE    ---      ---       PRINTF
      00FF31D4H   PUBLIC    CODE     NEAR LAB  PRINTF

      ---         MODULE    ---      ---       ?C?FPGETOPN
      00FF3200H   PUBLIC    CODE     ---       ?C?FPGETOPN2
      00FF323DH   PUBLIC    CODE     ---       ?C?FPNANRESULT
      00FF3245H   PUBLIC    CODE     ---       ?C?FPOVERFLOW
      00FF3219H   PUBLIC    CODE     ---       ?C?FPRESULT
      00FF322FH   PUBLIC    CODE     ---       ?C?FPRESULT2
      00FF3242H   PUBLIC    CODE     ---       ?C?FPUNDERFLOW

      ---         MODULE    ---      ---       ?C?PRNFMT
      00FF327EH   PUBLIC    CODE     ---       ?C?PRNFMT

      ---         MODULE    ---      ---       ?C?FPCONVERT
      00FF369BH   PUBLIC    CODE     ---       ?C?FPCONVERT
      00FF3753H   PUBLIC    CODE     ---       ?C?FPROUND

      ---         MODULE    ---      ---       ?C?FTNPWR
      00FF37C6H   PUBLIC    CODE     ---       ?C?FTNPWR

      ---         MODULE    ---      ---       ?C_START
      00FF0000H   PUBLIC    CODE     ---       ?C?STARTUP
      00FF0000H   PUBLIC    CODE     ---       ?C_STARTUP

      ---         MODULE    ---      ---       ?C?INITEDATA
      00FF74F1H   PUBLIC    CODE     ---       ?C?INITEDATA

      ---         MODULE    ---      ---       ?C?SIDIV
      00FF37FDH   PUBLIC    CODE     ---       ?C?SIDIV

      ---         MODULE    ---      ---       ?C?LMUL
      00FF382FH   PUBLIC    CODE     ---       ?C?LMUL

      ---         MODULE    ---      ---       ?C?LIMUL
      00FF3840H   PUBLIC    CODE     ---       ?C?LIMUL

      ---         MODULE    ---      ---       ?C?ULDIV
      00FF384BH   PUBLIC    CODE     NEAR LAB  ?C?ULDIV
      00FF3849H   PUBLIC    CODE     NEAR LAB  ?C?ULIDIV

      ---         MODULE    ---      ---       ?C?SLDIV
      00FF389CH   PUBLIC    CODE     NEAR LAB  ?C?SLDIV

      ---         MODULE    ---      ---       memcpy
      00FF7792H   PUBLIC    CODE     ---       memcpy?_

      ---         MODULE    ---      ---       memset

      ---         MODULE    ---      ---       ?C?INITEDATA_END
      00FF7DE6H   PUBLIC    HCONST   WORD      ?C?INITEDATA_END

Program Size: data=8.3 edata+hdata=3576 xdata=0 const=988 code=31525
L251 RUN COMPLETE.  0 WARNING(S),  0 ERROR(S)
